ARM GAS  C:\Users\walker\AppData\Local\Temp\ccWw4LAW.s 			page 1


   1              		.cpu cortex-m4
   2              		.arch armv7e-m
   3              		.fpu fpv4-sp-d16
   4              		.eabi_attribute 27, 1
   5              		.eabi_attribute 28, 1
   6              		.eabi_attribute 20, 1
   7              		.eabi_attribute 21, 1
   8              		.eabi_attribute 23, 3
   9              		.eabi_attribute 24, 1
  10              		.eabi_attribute 25, 1
  11              		.eabi_attribute 26, 1
  12              		.eabi_attribute 30, 1
  13              		.eabi_attribute 34, 1
  14              		.eabi_attribute 18, 4
  15              		.file	"CO_driver_STM32.c"
  16              		.text
  17              	.Ltext0:
  18              		.cfi_sections	.debug_frame
  19              		.section	.text.prv_send_can_message,"ax",%progbits
  20              		.align	1
  21              		.syntax unified
  22              		.thumb
  23              		.thumb_func
  25              	prv_send_can_message:
  26              	.LVL0:
  27              	.LFB170:
  28              		.file 1 "Middlewares/Third_Party/CANopenNode_STM32/CO_driver_STM32.c"
   1:Middlewares/Third_Party/CANopenNode_STM32/CO_driver_STM32.c **** /*
   2:Middlewares/Third_Party/CANopenNode_STM32/CO_driver_STM32.c ****  * CAN module object for STM32 (FD)CAN peripheral IP.
   3:Middlewares/Third_Party/CANopenNode_STM32/CO_driver_STM32.c ****  *
   4:Middlewares/Third_Party/CANopenNode_STM32/CO_driver_STM32.c ****  * This file is a template for other microcontrollers.
   5:Middlewares/Third_Party/CANopenNode_STM32/CO_driver_STM32.c ****  *
   6:Middlewares/Third_Party/CANopenNode_STM32/CO_driver_STM32.c ****  * @file        CO_driver.c
   7:Middlewares/Third_Party/CANopenNode_STM32/CO_driver_STM32.c ****  * @ingroup     CO_driver
   8:Middlewares/Third_Party/CANopenNode_STM32/CO_driver_STM32.c ****  * @author      Hamed Jafarzadeh 	2022
   9:Middlewares/Third_Party/CANopenNode_STM32/CO_driver_STM32.c ****  * 				Tilen Marjerle		2021
  10:Middlewares/Third_Party/CANopenNode_STM32/CO_driver_STM32.c ****  * 				Janez Paternoster	2020
  11:Middlewares/Third_Party/CANopenNode_STM32/CO_driver_STM32.c ****  * @copyright   2004 - 2020 Janez Paternoster
  12:Middlewares/Third_Party/CANopenNode_STM32/CO_driver_STM32.c ****  *
  13:Middlewares/Third_Party/CANopenNode_STM32/CO_driver_STM32.c ****  * This file is part of CANopenNode, an opensource CANopen Stack.
  14:Middlewares/Third_Party/CANopenNode_STM32/CO_driver_STM32.c ****  * Project home page is <https://github.com/CANopenNode/CANopenNode>.
  15:Middlewares/Third_Party/CANopenNode_STM32/CO_driver_STM32.c ****  * For more information on CANopen see <http://www.can-cia.org/>.
  16:Middlewares/Third_Party/CANopenNode_STM32/CO_driver_STM32.c ****  *
  17:Middlewares/Third_Party/CANopenNode_STM32/CO_driver_STM32.c ****  * Licensed under the Apache License, Version 2.0 (the "License");
  18:Middlewares/Third_Party/CANopenNode_STM32/CO_driver_STM32.c ****  * you may not use this file except in compliance with the License.
  19:Middlewares/Third_Party/CANopenNode_STM32/CO_driver_STM32.c ****  * You may obtain a copy of the License at
  20:Middlewares/Third_Party/CANopenNode_STM32/CO_driver_STM32.c ****  *
  21:Middlewares/Third_Party/CANopenNode_STM32/CO_driver_STM32.c ****  *     http://www.apache.org/licenses/LICENSE-2.0
  22:Middlewares/Third_Party/CANopenNode_STM32/CO_driver_STM32.c ****  *
  23:Middlewares/Third_Party/CANopenNode_STM32/CO_driver_STM32.c ****  * Unless required by applicable law or agreed to in writing, software
  24:Middlewares/Third_Party/CANopenNode_STM32/CO_driver_STM32.c ****  * distributed under the License is distributed on an "AS IS" BASIS,
  25:Middlewares/Third_Party/CANopenNode_STM32/CO_driver_STM32.c ****  * WITHOUT WARRANTIES OR CONDITIONS OF ANY KIND, either express or implied.
  26:Middlewares/Third_Party/CANopenNode_STM32/CO_driver_STM32.c ****  * See the License for the specific language governing permissions and
  27:Middlewares/Third_Party/CANopenNode_STM32/CO_driver_STM32.c ****  * limitations under the License.
  28:Middlewares/Third_Party/CANopenNode_STM32/CO_driver_STM32.c ****  *
  29:Middlewares/Third_Party/CANopenNode_STM32/CO_driver_STM32.c ****  * Implementation Author:               Tilen Majerle <tilen@majerle.eu>
  30:Middlewares/Third_Party/CANopenNode_STM32/CO_driver_STM32.c ****  */
ARM GAS  C:\Users\walker\AppData\Local\Temp\ccWw4LAW.s 			page 2


  31:Middlewares/Third_Party/CANopenNode_STM32/CO_driver_STM32.c **** #include "301/CO_driver.h"
  32:Middlewares/Third_Party/CANopenNode_STM32/CO_driver_STM32.c **** #include "CO_app_STM32.h"
  33:Middlewares/Third_Party/CANopenNode_STM32/CO_driver_STM32.c **** 
  34:Middlewares/Third_Party/CANopenNode_STM32/CO_driver_STM32.c **** /* Local CAN module object */
  35:Middlewares/Third_Party/CANopenNode_STM32/CO_driver_STM32.c **** static CO_CANmodule_t* CANModule_local = NULL; /* Local instance of global CAN module */
  36:Middlewares/Third_Party/CANopenNode_STM32/CO_driver_STM32.c **** 
  37:Middlewares/Third_Party/CANopenNode_STM32/CO_driver_STM32.c **** /* CAN masks for identifiers */
  38:Middlewares/Third_Party/CANopenNode_STM32/CO_driver_STM32.c **** #define CANID_MASK 0x07FF /*!< CAN standard ID mask */
  39:Middlewares/Third_Party/CANopenNode_STM32/CO_driver_STM32.c **** #define FLAG_RTR   0x8000 /*!< RTR flag, part of identifier */
  40:Middlewares/Third_Party/CANopenNode_STM32/CO_driver_STM32.c **** 
  41:Middlewares/Third_Party/CANopenNode_STM32/CO_driver_STM32.c **** /******************************************************************************/
  42:Middlewares/Third_Party/CANopenNode_STM32/CO_driver_STM32.c **** void
  43:Middlewares/Third_Party/CANopenNode_STM32/CO_driver_STM32.c **** CO_CANsetConfigurationMode(void* CANptr) {
  44:Middlewares/Third_Party/CANopenNode_STM32/CO_driver_STM32.c ****     /* Put CAN module in configuration mode */
  45:Middlewares/Third_Party/CANopenNode_STM32/CO_driver_STM32.c ****     if (CANptr != NULL) {
  46:Middlewares/Third_Party/CANopenNode_STM32/CO_driver_STM32.c **** #ifdef CO_STM32_FDCAN_Driver
  47:Middlewares/Third_Party/CANopenNode_STM32/CO_driver_STM32.c ****         HAL_FDCAN_Stop(((CANopenNodeSTM32*)CANptr)->CANHandle);
  48:Middlewares/Third_Party/CANopenNode_STM32/CO_driver_STM32.c **** #else
  49:Middlewares/Third_Party/CANopenNode_STM32/CO_driver_STM32.c ****         HAL_CAN_Stop(((CANopenNodeSTM32*)CANptr)->CANHandle);
  50:Middlewares/Third_Party/CANopenNode_STM32/CO_driver_STM32.c **** #endif
  51:Middlewares/Third_Party/CANopenNode_STM32/CO_driver_STM32.c ****     }
  52:Middlewares/Third_Party/CANopenNode_STM32/CO_driver_STM32.c **** }
  53:Middlewares/Third_Party/CANopenNode_STM32/CO_driver_STM32.c **** 
  54:Middlewares/Third_Party/CANopenNode_STM32/CO_driver_STM32.c **** /******************************************************************************/
  55:Middlewares/Third_Party/CANopenNode_STM32/CO_driver_STM32.c **** void
  56:Middlewares/Third_Party/CANopenNode_STM32/CO_driver_STM32.c **** CO_CANsetNormalMode(CO_CANmodule_t* CANmodule) {
  57:Middlewares/Third_Party/CANopenNode_STM32/CO_driver_STM32.c ****     /* Put CAN module in normal mode */
  58:Middlewares/Third_Party/CANopenNode_STM32/CO_driver_STM32.c ****     if (CANmodule->CANptr != NULL) {
  59:Middlewares/Third_Party/CANopenNode_STM32/CO_driver_STM32.c **** #ifdef CO_STM32_FDCAN_Driver
  60:Middlewares/Third_Party/CANopenNode_STM32/CO_driver_STM32.c ****         if (HAL_FDCAN_Start(((CANopenNodeSTM32*)CANmodule->CANptr)->CANHandle) == HAL_OK)
  61:Middlewares/Third_Party/CANopenNode_STM32/CO_driver_STM32.c **** #else
  62:Middlewares/Third_Party/CANopenNode_STM32/CO_driver_STM32.c ****         if (HAL_CAN_Start(((CANopenNodeSTM32*)CANmodule->CANptr)->CANHandle) == HAL_OK)
  63:Middlewares/Third_Party/CANopenNode_STM32/CO_driver_STM32.c **** #endif
  64:Middlewares/Third_Party/CANopenNode_STM32/CO_driver_STM32.c ****         {
  65:Middlewares/Third_Party/CANopenNode_STM32/CO_driver_STM32.c ****             CANmodule->CANnormal = true;
  66:Middlewares/Third_Party/CANopenNode_STM32/CO_driver_STM32.c ****         }
  67:Middlewares/Third_Party/CANopenNode_STM32/CO_driver_STM32.c ****     }
  68:Middlewares/Third_Party/CANopenNode_STM32/CO_driver_STM32.c **** }
  69:Middlewares/Third_Party/CANopenNode_STM32/CO_driver_STM32.c **** 
  70:Middlewares/Third_Party/CANopenNode_STM32/CO_driver_STM32.c **** /******************************************************************************/
  71:Middlewares/Third_Party/CANopenNode_STM32/CO_driver_STM32.c **** CO_ReturnError_t
  72:Middlewares/Third_Party/CANopenNode_STM32/CO_driver_STM32.c **** CO_CANmodule_init(CO_CANmodule_t* CANmodule, void* CANptr, CO_CANrx_t rxArray[], uint16_t rxSize, C
  73:Middlewares/Third_Party/CANopenNode_STM32/CO_driver_STM32.c ****                   uint16_t txSize, uint16_t CANbitRate) {
  74:Middlewares/Third_Party/CANopenNode_STM32/CO_driver_STM32.c **** 
  75:Middlewares/Third_Party/CANopenNode_STM32/CO_driver_STM32.c ****     /* verify arguments */
  76:Middlewares/Third_Party/CANopenNode_STM32/CO_driver_STM32.c ****     if (CANmodule == NULL || rxArray == NULL || txArray == NULL) {
  77:Middlewares/Third_Party/CANopenNode_STM32/CO_driver_STM32.c ****         return CO_ERROR_ILLEGAL_ARGUMENT;
  78:Middlewares/Third_Party/CANopenNode_STM32/CO_driver_STM32.c ****     }
  79:Middlewares/Third_Party/CANopenNode_STM32/CO_driver_STM32.c **** 
  80:Middlewares/Third_Party/CANopenNode_STM32/CO_driver_STM32.c ****     /* Hold CANModule variable */
  81:Middlewares/Third_Party/CANopenNode_STM32/CO_driver_STM32.c ****     CANmodule->CANptr = CANptr;
  82:Middlewares/Third_Party/CANopenNode_STM32/CO_driver_STM32.c **** 
  83:Middlewares/Third_Party/CANopenNode_STM32/CO_driver_STM32.c ****     /* Keep a local copy of CANModule */
  84:Middlewares/Third_Party/CANopenNode_STM32/CO_driver_STM32.c ****     CANModule_local = CANmodule;
  85:Middlewares/Third_Party/CANopenNode_STM32/CO_driver_STM32.c **** 
  86:Middlewares/Third_Party/CANopenNode_STM32/CO_driver_STM32.c ****     /* Configure object variables */
  87:Middlewares/Third_Party/CANopenNode_STM32/CO_driver_STM32.c ****     CANmodule->rxArray = rxArray;
ARM GAS  C:\Users\walker\AppData\Local\Temp\ccWw4LAW.s 			page 3


  88:Middlewares/Third_Party/CANopenNode_STM32/CO_driver_STM32.c ****     CANmodule->rxSize = rxSize;
  89:Middlewares/Third_Party/CANopenNode_STM32/CO_driver_STM32.c ****     CANmodule->txArray = txArray;
  90:Middlewares/Third_Party/CANopenNode_STM32/CO_driver_STM32.c ****     CANmodule->txSize = txSize;
  91:Middlewares/Third_Party/CANopenNode_STM32/CO_driver_STM32.c ****     CANmodule->CANerrorStatus = 0;
  92:Middlewares/Third_Party/CANopenNode_STM32/CO_driver_STM32.c ****     CANmodule->CANnormal = false;
  93:Middlewares/Third_Party/CANopenNode_STM32/CO_driver_STM32.c ****     CANmodule->useCANrxFilters = false; /* Do not use HW filters */
  94:Middlewares/Third_Party/CANopenNode_STM32/CO_driver_STM32.c ****     CANmodule->bufferInhibitFlag = false;
  95:Middlewares/Third_Party/CANopenNode_STM32/CO_driver_STM32.c ****     CANmodule->firstCANtxMessage = true;
  96:Middlewares/Third_Party/CANopenNode_STM32/CO_driver_STM32.c ****     CANmodule->CANtxCount = 0U;
  97:Middlewares/Third_Party/CANopenNode_STM32/CO_driver_STM32.c ****     CANmodule->errOld = 0U;
  98:Middlewares/Third_Party/CANopenNode_STM32/CO_driver_STM32.c **** 
  99:Middlewares/Third_Party/CANopenNode_STM32/CO_driver_STM32.c ****     /* Reset all variables */
 100:Middlewares/Third_Party/CANopenNode_STM32/CO_driver_STM32.c ****     for (uint16_t i = 0U; i < rxSize; i++) {
 101:Middlewares/Third_Party/CANopenNode_STM32/CO_driver_STM32.c ****         rxArray[i].ident = 0U;
 102:Middlewares/Third_Party/CANopenNode_STM32/CO_driver_STM32.c ****         rxArray[i].mask = 0xFFFFU;
 103:Middlewares/Third_Party/CANopenNode_STM32/CO_driver_STM32.c ****         rxArray[i].object = NULL;
 104:Middlewares/Third_Party/CANopenNode_STM32/CO_driver_STM32.c ****         rxArray[i].CANrx_callback = NULL;
 105:Middlewares/Third_Party/CANopenNode_STM32/CO_driver_STM32.c ****     }
 106:Middlewares/Third_Party/CANopenNode_STM32/CO_driver_STM32.c ****     for (uint16_t i = 0U; i < txSize; i++) {
 107:Middlewares/Third_Party/CANopenNode_STM32/CO_driver_STM32.c ****         txArray[i].bufferFull = false;
 108:Middlewares/Third_Party/CANopenNode_STM32/CO_driver_STM32.c ****     }
 109:Middlewares/Third_Party/CANopenNode_STM32/CO_driver_STM32.c **** 
 110:Middlewares/Third_Party/CANopenNode_STM32/CO_driver_STM32.c ****     /***************************************/
 111:Middlewares/Third_Party/CANopenNode_STM32/CO_driver_STM32.c ****     /* STM32 related configuration */
 112:Middlewares/Third_Party/CANopenNode_STM32/CO_driver_STM32.c ****     /***************************************/
 113:Middlewares/Third_Party/CANopenNode_STM32/CO_driver_STM32.c ****     ((CANopenNodeSTM32*)CANptr)->HWInitFunction();
 114:Middlewares/Third_Party/CANopenNode_STM32/CO_driver_STM32.c **** 
 115:Middlewares/Third_Party/CANopenNode_STM32/CO_driver_STM32.c ****     /*
 116:Middlewares/Third_Party/CANopenNode_STM32/CO_driver_STM32.c ****      * Configure global filter that is used as last check if message did not pass any of other filt
 117:Middlewares/Third_Party/CANopenNode_STM32/CO_driver_STM32.c ****      *
 118:Middlewares/Third_Party/CANopenNode_STM32/CO_driver_STM32.c ****      * We do not rely on hardware filters in this example
 119:Middlewares/Third_Party/CANopenNode_STM32/CO_driver_STM32.c ****      * and are performing software filters instead
 120:Middlewares/Third_Party/CANopenNode_STM32/CO_driver_STM32.c ****      *
 121:Middlewares/Third_Party/CANopenNode_STM32/CO_driver_STM32.c ****      * Accept non-matching standard ID messages
 122:Middlewares/Third_Party/CANopenNode_STM32/CO_driver_STM32.c ****      * Reject non-matching extended ID messages
 123:Middlewares/Third_Party/CANopenNode_STM32/CO_driver_STM32.c ****      */
 124:Middlewares/Third_Party/CANopenNode_STM32/CO_driver_STM32.c **** 
 125:Middlewares/Third_Party/CANopenNode_STM32/CO_driver_STM32.c **** #ifdef CO_STM32_FDCAN_Driver
 126:Middlewares/Third_Party/CANopenNode_STM32/CO_driver_STM32.c ****     if (HAL_FDCAN_ConfigGlobalFilter(((CANopenNodeSTM32*)CANptr)->CANHandle, FDCAN_ACCEPT_IN_RX_FIF
 127:Middlewares/Third_Party/CANopenNode_STM32/CO_driver_STM32.c ****                                      FDCAN_FILTER_REMOTE, FDCAN_FILTER_REMOTE)
 128:Middlewares/Third_Party/CANopenNode_STM32/CO_driver_STM32.c ****         != HAL_OK) {
 129:Middlewares/Third_Party/CANopenNode_STM32/CO_driver_STM32.c ****         return CO_ERROR_ILLEGAL_ARGUMENT;
 130:Middlewares/Third_Party/CANopenNode_STM32/CO_driver_STM32.c ****     }
 131:Middlewares/Third_Party/CANopenNode_STM32/CO_driver_STM32.c **** #else
 132:Middlewares/Third_Party/CANopenNode_STM32/CO_driver_STM32.c ****     CAN_FilterTypeDef FilterConfig;
 133:Middlewares/Third_Party/CANopenNode_STM32/CO_driver_STM32.c **** #if defined(CAN)
 134:Middlewares/Third_Party/CANopenNode_STM32/CO_driver_STM32.c ****     FilterConfig.FilterBank = 0;
 135:Middlewares/Third_Party/CANopenNode_STM32/CO_driver_STM32.c **** #else
 136:Middlewares/Third_Party/CANopenNode_STM32/CO_driver_STM32.c ****     if (((CAN_HandleTypeDef*)((CANopenNodeSTM32*)CANmodule->CANptr)->CANHandle)->Instance == CAN1) 
 137:Middlewares/Third_Party/CANopenNode_STM32/CO_driver_STM32.c ****         FilterConfig.FilterBank = 0;
 138:Middlewares/Third_Party/CANopenNode_STM32/CO_driver_STM32.c ****     } else {
 139:Middlewares/Third_Party/CANopenNode_STM32/CO_driver_STM32.c ****         FilterConfig.FilterBank = 14;
 140:Middlewares/Third_Party/CANopenNode_STM32/CO_driver_STM32.c ****     }
 141:Middlewares/Third_Party/CANopenNode_STM32/CO_driver_STM32.c **** #endif
 142:Middlewares/Third_Party/CANopenNode_STM32/CO_driver_STM32.c ****     FilterConfig.FilterMode = CAN_FILTERMODE_IDMASK;
 143:Middlewares/Third_Party/CANopenNode_STM32/CO_driver_STM32.c ****     FilterConfig.FilterScale = CAN_FILTERSCALE_32BIT;
 144:Middlewares/Third_Party/CANopenNode_STM32/CO_driver_STM32.c ****     FilterConfig.FilterIdHigh = 0x0;
ARM GAS  C:\Users\walker\AppData\Local\Temp\ccWw4LAW.s 			page 4


 145:Middlewares/Third_Party/CANopenNode_STM32/CO_driver_STM32.c ****     FilterConfig.FilterIdLow = 0x0;
 146:Middlewares/Third_Party/CANopenNode_STM32/CO_driver_STM32.c ****     FilterConfig.FilterMaskIdHigh = 0x0;
 147:Middlewares/Third_Party/CANopenNode_STM32/CO_driver_STM32.c ****     FilterConfig.FilterMaskIdLow = 0x0;
 148:Middlewares/Third_Party/CANopenNode_STM32/CO_driver_STM32.c ****     FilterConfig.FilterFIFOAssignment = CAN_RX_FIFO0;
 149:Middlewares/Third_Party/CANopenNode_STM32/CO_driver_STM32.c **** 
 150:Middlewares/Third_Party/CANopenNode_STM32/CO_driver_STM32.c ****     FilterConfig.FilterActivation = ENABLE;
 151:Middlewares/Third_Party/CANopenNode_STM32/CO_driver_STM32.c ****     FilterConfig.SlaveStartFilterBank = 14;
 152:Middlewares/Third_Party/CANopenNode_STM32/CO_driver_STM32.c **** 
 153:Middlewares/Third_Party/CANopenNode_STM32/CO_driver_STM32.c ****     if (HAL_CAN_ConfigFilter(((CANopenNodeSTM32*)CANptr)->CANHandle, &FilterConfig) != HAL_OK) {
 154:Middlewares/Third_Party/CANopenNode_STM32/CO_driver_STM32.c ****         return CO_ERROR_ILLEGAL_ARGUMENT;
 155:Middlewares/Third_Party/CANopenNode_STM32/CO_driver_STM32.c ****     }
 156:Middlewares/Third_Party/CANopenNode_STM32/CO_driver_STM32.c **** #endif
 157:Middlewares/Third_Party/CANopenNode_STM32/CO_driver_STM32.c ****     /* Enable notifications */
 158:Middlewares/Third_Party/CANopenNode_STM32/CO_driver_STM32.c ****     /* Activate the CAN notification interrupts */
 159:Middlewares/Third_Party/CANopenNode_STM32/CO_driver_STM32.c **** #ifdef CO_STM32_FDCAN_Driver
 160:Middlewares/Third_Party/CANopenNode_STM32/CO_driver_STM32.c ****     if (HAL_FDCAN_ActivateNotification(((CANopenNodeSTM32*)CANptr)->CANHandle,
 161:Middlewares/Third_Party/CANopenNode_STM32/CO_driver_STM32.c ****                                        0 | FDCAN_IT_RX_FIFO0_NEW_MESSAGE | FDCAN_IT_RX_FIFO1_NEW_ME
 162:Middlewares/Third_Party/CANopenNode_STM32/CO_driver_STM32.c ****                                            | FDCAN_IT_TX_COMPLETE | FDCAN_IT_TX_FIFO_EMPTY | FDCAN_
 163:Middlewares/Third_Party/CANopenNode_STM32/CO_driver_STM32.c ****                                            | FDCAN_IT_ARB_PROTOCOL_ERROR | FDCAN_IT_DATA_PROTOCOL_E
 164:Middlewares/Third_Party/CANopenNode_STM32/CO_driver_STM32.c ****                                            | FDCAN_IT_ERROR_PASSIVE | FDCAN_IT_ERROR_WARNING,
 165:Middlewares/Third_Party/CANopenNode_STM32/CO_driver_STM32.c ****                                        0xFFFFFFFF)
 166:Middlewares/Third_Party/CANopenNode_STM32/CO_driver_STM32.c ****         != HAL_OK) {
 167:Middlewares/Third_Party/CANopenNode_STM32/CO_driver_STM32.c ****         return CO_ERROR_ILLEGAL_ARGUMENT;
 168:Middlewares/Third_Party/CANopenNode_STM32/CO_driver_STM32.c ****     }
 169:Middlewares/Third_Party/CANopenNode_STM32/CO_driver_STM32.c **** #else
 170:Middlewares/Third_Party/CANopenNode_STM32/CO_driver_STM32.c ****     if (HAL_CAN_ActivateNotification(((CANopenNodeSTM32*)CANptr)->CANHandle, CAN_IT_RX_FIFO0_MSG_PE
 171:Middlewares/Third_Party/CANopenNode_STM32/CO_driver_STM32.c ****                                                                                  | CAN_IT_RX_FIFO1_
 172:Middlewares/Third_Party/CANopenNode_STM32/CO_driver_STM32.c ****                                                                                  | CAN_IT_TX_MAILBO
 173:Middlewares/Third_Party/CANopenNode_STM32/CO_driver_STM32.c ****         != HAL_OK) {
 174:Middlewares/Third_Party/CANopenNode_STM32/CO_driver_STM32.c ****         return CO_ERROR_ILLEGAL_ARGUMENT;
 175:Middlewares/Third_Party/CANopenNode_STM32/CO_driver_STM32.c ****     }
 176:Middlewares/Third_Party/CANopenNode_STM32/CO_driver_STM32.c **** #endif
 177:Middlewares/Third_Party/CANopenNode_STM32/CO_driver_STM32.c **** 
 178:Middlewares/Third_Party/CANopenNode_STM32/CO_driver_STM32.c ****     return CO_ERROR_NO;
 179:Middlewares/Third_Party/CANopenNode_STM32/CO_driver_STM32.c **** }
 180:Middlewares/Third_Party/CANopenNode_STM32/CO_driver_STM32.c **** 
 181:Middlewares/Third_Party/CANopenNode_STM32/CO_driver_STM32.c **** /******************************************************************************/
 182:Middlewares/Third_Party/CANopenNode_STM32/CO_driver_STM32.c **** void
 183:Middlewares/Third_Party/CANopenNode_STM32/CO_driver_STM32.c **** CO_CANmodule_disable(CO_CANmodule_t* CANmodule) {
 184:Middlewares/Third_Party/CANopenNode_STM32/CO_driver_STM32.c ****     if (CANmodule != NULL && CANmodule->CANptr != NULL) {
 185:Middlewares/Third_Party/CANopenNode_STM32/CO_driver_STM32.c **** #ifdef CO_STM32_FDCAN_Driver
 186:Middlewares/Third_Party/CANopenNode_STM32/CO_driver_STM32.c ****         HAL_FDCAN_Stop(((CANopenNodeSTM32*)CANmodule->CANptr)->CANHandle);
 187:Middlewares/Third_Party/CANopenNode_STM32/CO_driver_STM32.c **** 
 188:Middlewares/Third_Party/CANopenNode_STM32/CO_driver_STM32.c **** #else
 189:Middlewares/Third_Party/CANopenNode_STM32/CO_driver_STM32.c ****         HAL_CAN_Stop(((CANopenNodeSTM32*)CANmodule->CANptr)->CANHandle);
 190:Middlewares/Third_Party/CANopenNode_STM32/CO_driver_STM32.c **** #endif
 191:Middlewares/Third_Party/CANopenNode_STM32/CO_driver_STM32.c ****     }
 192:Middlewares/Third_Party/CANopenNode_STM32/CO_driver_STM32.c **** }
 193:Middlewares/Third_Party/CANopenNode_STM32/CO_driver_STM32.c **** 
 194:Middlewares/Third_Party/CANopenNode_STM32/CO_driver_STM32.c **** /******************************************************************************/
 195:Middlewares/Third_Party/CANopenNode_STM32/CO_driver_STM32.c **** CO_ReturnError_t
 196:Middlewares/Third_Party/CANopenNode_STM32/CO_driver_STM32.c **** CO_CANrxBufferInit(CO_CANmodule_t* CANmodule, uint16_t index, uint16_t ident, uint16_t mask, bool_t
 197:Middlewares/Third_Party/CANopenNode_STM32/CO_driver_STM32.c ****                    void (*CANrx_callback)(void* object, void* message)) {
 198:Middlewares/Third_Party/CANopenNode_STM32/CO_driver_STM32.c ****     CO_ReturnError_t ret = CO_ERROR_NO;
 199:Middlewares/Third_Party/CANopenNode_STM32/CO_driver_STM32.c **** 
 200:Middlewares/Third_Party/CANopenNode_STM32/CO_driver_STM32.c ****     if (CANmodule != NULL && object != NULL && CANrx_callback != NULL && index < CANmodule->rxSize)
 201:Middlewares/Third_Party/CANopenNode_STM32/CO_driver_STM32.c ****         CO_CANrx_t* buffer = &CANmodule->rxArray[index];
ARM GAS  C:\Users\walker\AppData\Local\Temp\ccWw4LAW.s 			page 5


 202:Middlewares/Third_Party/CANopenNode_STM32/CO_driver_STM32.c **** 
 203:Middlewares/Third_Party/CANopenNode_STM32/CO_driver_STM32.c ****         /* Configure object variables */
 204:Middlewares/Third_Party/CANopenNode_STM32/CO_driver_STM32.c ****         buffer->object = object;
 205:Middlewares/Third_Party/CANopenNode_STM32/CO_driver_STM32.c ****         buffer->CANrx_callback = CANrx_callback;
 206:Middlewares/Third_Party/CANopenNode_STM32/CO_driver_STM32.c **** 
 207:Middlewares/Third_Party/CANopenNode_STM32/CO_driver_STM32.c ****         /*
 208:Middlewares/Third_Party/CANopenNode_STM32/CO_driver_STM32.c ****          * Configure global identifier, including RTR bit
 209:Middlewares/Third_Party/CANopenNode_STM32/CO_driver_STM32.c ****          *
 210:Middlewares/Third_Party/CANopenNode_STM32/CO_driver_STM32.c ****          * This is later used for RX operation match case
 211:Middlewares/Third_Party/CANopenNode_STM32/CO_driver_STM32.c ****          */
 212:Middlewares/Third_Party/CANopenNode_STM32/CO_driver_STM32.c ****         buffer->ident = (ident & CANID_MASK) | (rtr ? FLAG_RTR : 0x00);
 213:Middlewares/Third_Party/CANopenNode_STM32/CO_driver_STM32.c ****         buffer->mask = (mask & CANID_MASK) | FLAG_RTR;
 214:Middlewares/Third_Party/CANopenNode_STM32/CO_driver_STM32.c **** 
 215:Middlewares/Third_Party/CANopenNode_STM32/CO_driver_STM32.c ****         /* Set CAN hardware module filter and mask. */
 216:Middlewares/Third_Party/CANopenNode_STM32/CO_driver_STM32.c ****         if (CANmodule->useCANrxFilters) {
 217:Middlewares/Third_Party/CANopenNode_STM32/CO_driver_STM32.c ****             __NOP();
 218:Middlewares/Third_Party/CANopenNode_STM32/CO_driver_STM32.c ****         }
 219:Middlewares/Third_Party/CANopenNode_STM32/CO_driver_STM32.c ****     } else {
 220:Middlewares/Third_Party/CANopenNode_STM32/CO_driver_STM32.c ****         ret = CO_ERROR_ILLEGAL_ARGUMENT;
 221:Middlewares/Third_Party/CANopenNode_STM32/CO_driver_STM32.c ****     }
 222:Middlewares/Third_Party/CANopenNode_STM32/CO_driver_STM32.c **** 
 223:Middlewares/Third_Party/CANopenNode_STM32/CO_driver_STM32.c ****     return ret;
 224:Middlewares/Third_Party/CANopenNode_STM32/CO_driver_STM32.c **** }
 225:Middlewares/Third_Party/CANopenNode_STM32/CO_driver_STM32.c **** 
 226:Middlewares/Third_Party/CANopenNode_STM32/CO_driver_STM32.c **** /******************************************************************************/
 227:Middlewares/Third_Party/CANopenNode_STM32/CO_driver_STM32.c **** CO_CANtx_t*
 228:Middlewares/Third_Party/CANopenNode_STM32/CO_driver_STM32.c **** CO_CANtxBufferInit(CO_CANmodule_t* CANmodule, uint16_t index, uint16_t ident, bool_t rtr, uint8_t n
 229:Middlewares/Third_Party/CANopenNode_STM32/CO_driver_STM32.c ****                    bool_t syncFlag) {
 230:Middlewares/Third_Party/CANopenNode_STM32/CO_driver_STM32.c ****     CO_CANtx_t* buffer = NULL;
 231:Middlewares/Third_Party/CANopenNode_STM32/CO_driver_STM32.c **** 
 232:Middlewares/Third_Party/CANopenNode_STM32/CO_driver_STM32.c ****     if (CANmodule != NULL && index < CANmodule->txSize) {
 233:Middlewares/Third_Party/CANopenNode_STM32/CO_driver_STM32.c ****         buffer = &CANmodule->txArray[index];
 234:Middlewares/Third_Party/CANopenNode_STM32/CO_driver_STM32.c **** 
 235:Middlewares/Third_Party/CANopenNode_STM32/CO_driver_STM32.c ****         /* CAN identifier, DLC and rtr, bit aligned with CAN module transmit buffer */
 236:Middlewares/Third_Party/CANopenNode_STM32/CO_driver_STM32.c ****         buffer->ident = ((uint32_t)ident & CANID_MASK) | ((uint32_t)(rtr ? FLAG_RTR : 0x00));
 237:Middlewares/Third_Party/CANopenNode_STM32/CO_driver_STM32.c ****         buffer->DLC = noOfBytes;
 238:Middlewares/Third_Party/CANopenNode_STM32/CO_driver_STM32.c ****         buffer->bufferFull = false;
 239:Middlewares/Third_Party/CANopenNode_STM32/CO_driver_STM32.c ****         buffer->syncFlag = syncFlag;
 240:Middlewares/Third_Party/CANopenNode_STM32/CO_driver_STM32.c ****     }
 241:Middlewares/Third_Party/CANopenNode_STM32/CO_driver_STM32.c ****     return buffer;
 242:Middlewares/Third_Party/CANopenNode_STM32/CO_driver_STM32.c **** }
 243:Middlewares/Third_Party/CANopenNode_STM32/CO_driver_STM32.c **** 
 244:Middlewares/Third_Party/CANopenNode_STM32/CO_driver_STM32.c **** /**
 245:Middlewares/Third_Party/CANopenNode_STM32/CO_driver_STM32.c ****  * \brief           Send CAN message to network
 246:Middlewares/Third_Party/CANopenNode_STM32/CO_driver_STM32.c ****  * This function must be called with atomic access.
 247:Middlewares/Third_Party/CANopenNode_STM32/CO_driver_STM32.c ****  *
 248:Middlewares/Third_Party/CANopenNode_STM32/CO_driver_STM32.c ****  * \param[in]       CANmodule: CAN module instance
 249:Middlewares/Third_Party/CANopenNode_STM32/CO_driver_STM32.c ****  * \param[in]       buffer: Pointer to buffer to transmit
 250:Middlewares/Third_Party/CANopenNode_STM32/CO_driver_STM32.c ****  */
 251:Middlewares/Third_Party/CANopenNode_STM32/CO_driver_STM32.c **** static uint8_t
 252:Middlewares/Third_Party/CANopenNode_STM32/CO_driver_STM32.c **** prv_send_can_message(CO_CANmodule_t* CANmodule, CO_CANtx_t* buffer) {
  29              		.loc 1 252 69 view -0
  30              		.cfi_startproc
  31              		@ args = 0, pretend = 0, frame = 8
  32              		@ frame_needed = 0, uses_anonymous_args = 0
  33              		.loc 1 252 69 is_stmt 0 view .LVU1
  34 0000 30B5     		push	{r4, r5, lr}
ARM GAS  C:\Users\walker\AppData\Local\Temp\ccWw4LAW.s 			page 6


  35              	.LCFI0:
  36              		.cfi_def_cfa_offset 12
  37              		.cfi_offset 4, -12
  38              		.cfi_offset 5, -8
  39              		.cfi_offset 14, -4
  40 0002 83B0     		sub	sp, sp, #12
  41              	.LCFI1:
  42              		.cfi_def_cfa_offset 24
  43 0004 0546     		mov	r5, r0
  44 0006 0C46     		mov	r4, r1
 253:Middlewares/Third_Party/CANopenNode_STM32/CO_driver_STM32.c **** 
 254:Middlewares/Third_Party/CANopenNode_STM32/CO_driver_STM32.c ****     uint8_t success = 0;
  45              		.loc 1 254 5 is_stmt 1 view .LVU2
  46              	.LVL1:
 255:Middlewares/Third_Party/CANopenNode_STM32/CO_driver_STM32.c **** 
 256:Middlewares/Third_Party/CANopenNode_STM32/CO_driver_STM32.c ****     /* Check if TX FIFO is ready to accept more messages */
 257:Middlewares/Third_Party/CANopenNode_STM32/CO_driver_STM32.c **** #ifdef CO_STM32_FDCAN_Driver
 258:Middlewares/Third_Party/CANopenNode_STM32/CO_driver_STM32.c ****     static FDCAN_TxHeaderTypeDef tx_hdr;
 259:Middlewares/Third_Party/CANopenNode_STM32/CO_driver_STM32.c ****     if (HAL_FDCAN_GetTxFifoFreeLevel(((CANopenNodeSTM32*)CANmodule->CANptr)->CANHandle) > 0) {
 260:Middlewares/Third_Party/CANopenNode_STM32/CO_driver_STM32.c ****         /*
 261:Middlewares/Third_Party/CANopenNode_STM32/CO_driver_STM32.c ****          * RTR flag is part of identifier value
 262:Middlewares/Third_Party/CANopenNode_STM32/CO_driver_STM32.c ****          * hence it needs to be properly decoded
 263:Middlewares/Third_Party/CANopenNode_STM32/CO_driver_STM32.c ****          */
 264:Middlewares/Third_Party/CANopenNode_STM32/CO_driver_STM32.c ****         tx_hdr.Identifier = buffer->ident & CANID_MASK;
 265:Middlewares/Third_Party/CANopenNode_STM32/CO_driver_STM32.c ****         tx_hdr.TxFrameType = (buffer->ident & FLAG_RTR) ? FDCAN_REMOTE_FRAME : FDCAN_DATA_FRAME;
 266:Middlewares/Third_Party/CANopenNode_STM32/CO_driver_STM32.c ****         tx_hdr.IdType = FDCAN_STANDARD_ID;
 267:Middlewares/Third_Party/CANopenNode_STM32/CO_driver_STM32.c ****         tx_hdr.FDFormat = FDCAN_CLASSIC_CAN;
 268:Middlewares/Third_Party/CANopenNode_STM32/CO_driver_STM32.c ****         tx_hdr.BitRateSwitch = FDCAN_BRS_OFF;
 269:Middlewares/Third_Party/CANopenNode_STM32/CO_driver_STM32.c ****         tx_hdr.MessageMarker = 0;
 270:Middlewares/Third_Party/CANopenNode_STM32/CO_driver_STM32.c ****         tx_hdr.ErrorStateIndicator = FDCAN_ESI_ACTIVE;
 271:Middlewares/Third_Party/CANopenNode_STM32/CO_driver_STM32.c ****         tx_hdr.TxEventFifoControl = FDCAN_NO_TX_EVENTS;
 272:Middlewares/Third_Party/CANopenNode_STM32/CO_driver_STM32.c **** 
 273:Middlewares/Third_Party/CANopenNode_STM32/CO_driver_STM32.c ****         switch (buffer->DLC) {
 274:Middlewares/Third_Party/CANopenNode_STM32/CO_driver_STM32.c ****             case 0:
 275:Middlewares/Third_Party/CANopenNode_STM32/CO_driver_STM32.c ****                 tx_hdr.DataLength = FDCAN_DLC_BYTES_0;
 276:Middlewares/Third_Party/CANopenNode_STM32/CO_driver_STM32.c ****                 break;
 277:Middlewares/Third_Party/CANopenNode_STM32/CO_driver_STM32.c ****             case 1:
 278:Middlewares/Third_Party/CANopenNode_STM32/CO_driver_STM32.c ****                 tx_hdr.DataLength = FDCAN_DLC_BYTES_1;
 279:Middlewares/Third_Party/CANopenNode_STM32/CO_driver_STM32.c ****                 break;
 280:Middlewares/Third_Party/CANopenNode_STM32/CO_driver_STM32.c ****             case 2:
 281:Middlewares/Third_Party/CANopenNode_STM32/CO_driver_STM32.c ****                 tx_hdr.DataLength = FDCAN_DLC_BYTES_2;
 282:Middlewares/Third_Party/CANopenNode_STM32/CO_driver_STM32.c ****                 break;
 283:Middlewares/Third_Party/CANopenNode_STM32/CO_driver_STM32.c ****             case 3:
 284:Middlewares/Third_Party/CANopenNode_STM32/CO_driver_STM32.c ****                 tx_hdr.DataLength = FDCAN_DLC_BYTES_3;
 285:Middlewares/Third_Party/CANopenNode_STM32/CO_driver_STM32.c ****                 break;
 286:Middlewares/Third_Party/CANopenNode_STM32/CO_driver_STM32.c ****             case 4:
 287:Middlewares/Third_Party/CANopenNode_STM32/CO_driver_STM32.c ****                 tx_hdr.DataLength = FDCAN_DLC_BYTES_4;
 288:Middlewares/Third_Party/CANopenNode_STM32/CO_driver_STM32.c ****                 break;
 289:Middlewares/Third_Party/CANopenNode_STM32/CO_driver_STM32.c ****             case 5:
 290:Middlewares/Third_Party/CANopenNode_STM32/CO_driver_STM32.c ****                 tx_hdr.DataLength = FDCAN_DLC_BYTES_5;
 291:Middlewares/Third_Party/CANopenNode_STM32/CO_driver_STM32.c ****                 break;
 292:Middlewares/Third_Party/CANopenNode_STM32/CO_driver_STM32.c ****             case 6:
 293:Middlewares/Third_Party/CANopenNode_STM32/CO_driver_STM32.c ****                 tx_hdr.DataLength = FDCAN_DLC_BYTES_6;
 294:Middlewares/Third_Party/CANopenNode_STM32/CO_driver_STM32.c ****                 break;
 295:Middlewares/Third_Party/CANopenNode_STM32/CO_driver_STM32.c ****             case 7:
 296:Middlewares/Third_Party/CANopenNode_STM32/CO_driver_STM32.c ****                 tx_hdr.DataLength = FDCAN_DLC_BYTES_7;
 297:Middlewares/Third_Party/CANopenNode_STM32/CO_driver_STM32.c ****                 break;
ARM GAS  C:\Users\walker\AppData\Local\Temp\ccWw4LAW.s 			page 7


 298:Middlewares/Third_Party/CANopenNode_STM32/CO_driver_STM32.c ****             case 8:
 299:Middlewares/Third_Party/CANopenNode_STM32/CO_driver_STM32.c ****                 tx_hdr.DataLength = FDCAN_DLC_BYTES_8;
 300:Middlewares/Third_Party/CANopenNode_STM32/CO_driver_STM32.c ****                 break;
 301:Middlewares/Third_Party/CANopenNode_STM32/CO_driver_STM32.c ****             default: /* Hard error... */
 302:Middlewares/Third_Party/CANopenNode_STM32/CO_driver_STM32.c ****                 break;
 303:Middlewares/Third_Party/CANopenNode_STM32/CO_driver_STM32.c ****         }
 304:Middlewares/Third_Party/CANopenNode_STM32/CO_driver_STM32.c **** 
 305:Middlewares/Third_Party/CANopenNode_STM32/CO_driver_STM32.c ****         /* Now add message to FIFO. Should not fail */
 306:Middlewares/Third_Party/CANopenNode_STM32/CO_driver_STM32.c ****         success =
 307:Middlewares/Third_Party/CANopenNode_STM32/CO_driver_STM32.c ****             HAL_FDCAN_AddMessageToTxFifoQ(((CANopenNodeSTM32*)CANmodule->CANptr)->CANHandle, &tx_hd
 308:Middlewares/Third_Party/CANopenNode_STM32/CO_driver_STM32.c ****             == HAL_OK;
 309:Middlewares/Third_Party/CANopenNode_STM32/CO_driver_STM32.c ****     }
 310:Middlewares/Third_Party/CANopenNode_STM32/CO_driver_STM32.c **** #else
 311:Middlewares/Third_Party/CANopenNode_STM32/CO_driver_STM32.c ****     static CAN_TxHeaderTypeDef tx_hdr;
  47              		.loc 1 311 5 view .LVU3
 312:Middlewares/Third_Party/CANopenNode_STM32/CO_driver_STM32.c ****     /* Check if TX FIFO is ready to accept more messages */
 313:Middlewares/Third_Party/CANopenNode_STM32/CO_driver_STM32.c ****     if (HAL_CAN_GetTxMailboxesFreeLevel(((CANopenNodeSTM32*)CANmodule->CANptr)->CANHandle) > 0) {
  48              		.loc 1 313 5 view .LVU4
  49              		.loc 1 313 70 is_stmt 0 view .LVU5
  50 0008 0368     		ldr	r3, [r0]
  51              		.loc 1 313 9 view .LVU6
  52 000a 9868     		ldr	r0, [r3, #8]
  53              	.LVL2:
  54              		.loc 1 313 9 view .LVU7
  55 000c FFF7FEFF 		bl	HAL_CAN_GetTxMailboxesFreeLevel
  56              	.LVL3:
  57              		.loc 1 313 8 view .LVU8
  58 0010 10B9     		cbnz	r0, .L5
 254:Middlewares/Third_Party/CANopenNode_STM32/CO_driver_STM32.c **** 
  59              		.loc 1 254 13 view .LVU9
  60 0012 0020     		movs	r0, #0
  61              	.LVL4:
  62              	.L2:
 314:Middlewares/Third_Party/CANopenNode_STM32/CO_driver_STM32.c ****         /*
 315:Middlewares/Third_Party/CANopenNode_STM32/CO_driver_STM32.c ****     		 * RTR flag is part of identifier value
 316:Middlewares/Third_Party/CANopenNode_STM32/CO_driver_STM32.c ****     		 * hence it needs to be properly decoded
 317:Middlewares/Third_Party/CANopenNode_STM32/CO_driver_STM32.c ****     		 */
 318:Middlewares/Third_Party/CANopenNode_STM32/CO_driver_STM32.c ****         tx_hdr.ExtId = 0u;
 319:Middlewares/Third_Party/CANopenNode_STM32/CO_driver_STM32.c ****         tx_hdr.IDE = CAN_ID_STD;
 320:Middlewares/Third_Party/CANopenNode_STM32/CO_driver_STM32.c ****         tx_hdr.DLC = buffer->DLC;
 321:Middlewares/Third_Party/CANopenNode_STM32/CO_driver_STM32.c ****         tx_hdr.StdId = buffer->ident & CANID_MASK;
 322:Middlewares/Third_Party/CANopenNode_STM32/CO_driver_STM32.c ****         tx_hdr.RTR = (buffer->ident & FLAG_RTR) ? CAN_RTR_REMOTE : CAN_RTR_DATA;
 323:Middlewares/Third_Party/CANopenNode_STM32/CO_driver_STM32.c **** 
 324:Middlewares/Third_Party/CANopenNode_STM32/CO_driver_STM32.c ****         uint32_t TxMailboxNum; // Transmission MailBox number
 325:Middlewares/Third_Party/CANopenNode_STM32/CO_driver_STM32.c **** 
 326:Middlewares/Third_Party/CANopenNode_STM32/CO_driver_STM32.c ****         /* Now add message to FIFO. Should not fail */
 327:Middlewares/Third_Party/CANopenNode_STM32/CO_driver_STM32.c ****         success = HAL_CAN_AddTxMessage(((CANopenNodeSTM32*)CANmodule->CANptr)->CANHandle, &tx_hdr, 
 328:Middlewares/Third_Party/CANopenNode_STM32/CO_driver_STM32.c ****                                        &TxMailboxNum)
 329:Middlewares/Third_Party/CANopenNode_STM32/CO_driver_STM32.c ****                   == HAL_OK;
 330:Middlewares/Third_Party/CANopenNode_STM32/CO_driver_STM32.c ****     }
 331:Middlewares/Third_Party/CANopenNode_STM32/CO_driver_STM32.c **** #endif
 332:Middlewares/Third_Party/CANopenNode_STM32/CO_driver_STM32.c ****     return success;
  63              		.loc 1 332 5 is_stmt 1 view .LVU10
 333:Middlewares/Third_Party/CANopenNode_STM32/CO_driver_STM32.c **** }
  64              		.loc 1 333 1 is_stmt 0 view .LVU11
  65 0014 03B0     		add	sp, sp, #12
  66              	.LCFI2:
ARM GAS  C:\Users\walker\AppData\Local\Temp\ccWw4LAW.s 			page 8


  67              		.cfi_remember_state
  68              		.cfi_def_cfa_offset 12
  69              		@ sp needed
  70 0016 30BD     		pop	{r4, r5, pc}
  71              	.LVL5:
  72              	.L5:
  73              	.LCFI3:
  74              		.cfi_restore_state
  75              	.LBB22:
 318:Middlewares/Third_Party/CANopenNode_STM32/CO_driver_STM32.c ****         tx_hdr.IDE = CAN_ID_STD;
  76              		.loc 1 318 9 is_stmt 1 view .LVU12
 318:Middlewares/Third_Party/CANopenNode_STM32/CO_driver_STM32.c ****         tx_hdr.IDE = CAN_ID_STD;
  77              		.loc 1 318 22 is_stmt 0 view .LVU13
  78 0018 0C49     		ldr	r1, .L6
  79 001a 0023     		movs	r3, #0
  80 001c 4B60     		str	r3, [r1, #4]
 319:Middlewares/Third_Party/CANopenNode_STM32/CO_driver_STM32.c ****         tx_hdr.DLC = buffer->DLC;
  81              		.loc 1 319 9 is_stmt 1 view .LVU14
 319:Middlewares/Third_Party/CANopenNode_STM32/CO_driver_STM32.c ****         tx_hdr.DLC = buffer->DLC;
  82              		.loc 1 319 20 is_stmt 0 view .LVU15
  83 001e 8B60     		str	r3, [r1, #8]
 320:Middlewares/Third_Party/CANopenNode_STM32/CO_driver_STM32.c ****         tx_hdr.StdId = buffer->ident & CANID_MASK;
  84              		.loc 1 320 9 is_stmt 1 view .LVU16
 320:Middlewares/Third_Party/CANopenNode_STM32/CO_driver_STM32.c ****         tx_hdr.StdId = buffer->ident & CANID_MASK;
  85              		.loc 1 320 28 is_stmt 0 view .LVU17
  86 0020 2379     		ldrb	r3, [r4, #4]	@ zero_extendqisi2
 320:Middlewares/Third_Party/CANopenNode_STM32/CO_driver_STM32.c ****         tx_hdr.StdId = buffer->ident & CANID_MASK;
  87              		.loc 1 320 20 view .LVU18
  88 0022 0B61     		str	r3, [r1, #16]
 321:Middlewares/Third_Party/CANopenNode_STM32/CO_driver_STM32.c ****         tx_hdr.RTR = (buffer->ident & FLAG_RTR) ? CAN_RTR_REMOTE : CAN_RTR_DATA;
  89              		.loc 1 321 9 is_stmt 1 view .LVU19
 321:Middlewares/Third_Party/CANopenNode_STM32/CO_driver_STM32.c ****         tx_hdr.RTR = (buffer->ident & FLAG_RTR) ? CAN_RTR_REMOTE : CAN_RTR_DATA;
  90              		.loc 1 321 30 is_stmt 0 view .LVU20
  91 0024 2368     		ldr	r3, [r4]
 321:Middlewares/Third_Party/CANopenNode_STM32/CO_driver_STM32.c ****         tx_hdr.RTR = (buffer->ident & FLAG_RTR) ? CAN_RTR_REMOTE : CAN_RTR_DATA;
  92              		.loc 1 321 38 view .LVU21
  93 0026 C3F30A03 		ubfx	r3, r3, #0, #11
 321:Middlewares/Third_Party/CANopenNode_STM32/CO_driver_STM32.c ****         tx_hdr.RTR = (buffer->ident & FLAG_RTR) ? CAN_RTR_REMOTE : CAN_RTR_DATA;
  94              		.loc 1 321 22 view .LVU22
  95 002a 0B60     		str	r3, [r1]
 322:Middlewares/Third_Party/CANopenNode_STM32/CO_driver_STM32.c **** 
  96              		.loc 1 322 9 is_stmt 1 view .LVU23
 322:Middlewares/Third_Party/CANopenNode_STM32/CO_driver_STM32.c **** 
  97              		.loc 1 322 29 is_stmt 0 view .LVU24
  98 002c 2246     		mov	r2, r4
  99 002e 52F8053B 		ldr	r3, [r2], #5
 322:Middlewares/Third_Party/CANopenNode_STM32/CO_driver_STM32.c **** 
 100              		.loc 1 322 66 view .LVU25
 101 0032 9B0B     		lsrs	r3, r3, #14
 102 0034 03F00203 		and	r3, r3, #2
 322:Middlewares/Third_Party/CANopenNode_STM32/CO_driver_STM32.c **** 
 103              		.loc 1 322 20 view .LVU26
 104 0038 CB60     		str	r3, [r1, #12]
 324:Middlewares/Third_Party/CANopenNode_STM32/CO_driver_STM32.c **** 
 105              		.loc 1 324 9 is_stmt 1 view .LVU27
 327:Middlewares/Third_Party/CANopenNode_STM32/CO_driver_STM32.c ****                                        &TxMailboxNum)
 106              		.loc 1 327 9 view .LVU28
ARM GAS  C:\Users\walker\AppData\Local\Temp\ccWw4LAW.s 			page 9


 327:Middlewares/Third_Party/CANopenNode_STM32/CO_driver_STM32.c ****                                        &TxMailboxNum)
 107              		.loc 1 327 69 is_stmt 0 view .LVU29
 108 003a 2868     		ldr	r0, [r5]
 327:Middlewares/Third_Party/CANopenNode_STM32/CO_driver_STM32.c ****                                        &TxMailboxNum)
 109              		.loc 1 327 19 view .LVU30
 110 003c 01AB     		add	r3, sp, #4
 111 003e 8068     		ldr	r0, [r0, #8]
 112 0040 FFF7FEFF 		bl	HAL_CAN_AddTxMessage
 113              	.LVL6:
 329:Middlewares/Third_Party/CANopenNode_STM32/CO_driver_STM32.c ****     }
 114              		.loc 1 329 19 view .LVU31
 115 0044 B0FA80F0 		clz	r0, r0
 116 0048 4009     		lsrs	r0, r0, #5
 117              	.LVL7:
 329:Middlewares/Third_Party/CANopenNode_STM32/CO_driver_STM32.c ****     }
 118              		.loc 1 329 19 view .LVU32
 119 004a E3E7     		b	.L2
 120              	.L7:
 121              		.align	2
 122              	.L6:
 123 004c 00000000 		.word	.LANCHOR0
 124              	.LBE22:
 125              		.cfi_endproc
 126              	.LFE170:
 128              		.section	.text.prv_read_can_received_msg,"ax",%progbits
 129              		.align	1
 130              		.syntax unified
 131              		.thumb
 132              		.thumb_func
 134              	prv_read_can_received_msg:
 135              	.LVL8:
 136              	.LFB174:
 334:Middlewares/Third_Party/CANopenNode_STM32/CO_driver_STM32.c **** 
 335:Middlewares/Third_Party/CANopenNode_STM32/CO_driver_STM32.c **** /******************************************************************************/
 336:Middlewares/Third_Party/CANopenNode_STM32/CO_driver_STM32.c **** CO_ReturnError_t
 337:Middlewares/Third_Party/CANopenNode_STM32/CO_driver_STM32.c **** CO_CANsend(CO_CANmodule_t* CANmodule, CO_CANtx_t* buffer) {
 338:Middlewares/Third_Party/CANopenNode_STM32/CO_driver_STM32.c ****     CO_ReturnError_t err = CO_ERROR_NO;
 339:Middlewares/Third_Party/CANopenNode_STM32/CO_driver_STM32.c **** 
 340:Middlewares/Third_Party/CANopenNode_STM32/CO_driver_STM32.c ****     /* Verify overflow */
 341:Middlewares/Third_Party/CANopenNode_STM32/CO_driver_STM32.c ****     if (buffer->bufferFull) {
 342:Middlewares/Third_Party/CANopenNode_STM32/CO_driver_STM32.c ****         if (!CANmodule->firstCANtxMessage) {
 343:Middlewares/Third_Party/CANopenNode_STM32/CO_driver_STM32.c ****             /* don't set error, if bootup message is still on buffers */
 344:Middlewares/Third_Party/CANopenNode_STM32/CO_driver_STM32.c ****             CANmodule->CANerrorStatus |= CO_CAN_ERRTX_OVERFLOW;
 345:Middlewares/Third_Party/CANopenNode_STM32/CO_driver_STM32.c ****         }
 346:Middlewares/Third_Party/CANopenNode_STM32/CO_driver_STM32.c ****         err = CO_ERROR_TX_OVERFLOW;
 347:Middlewares/Third_Party/CANopenNode_STM32/CO_driver_STM32.c ****     }
 348:Middlewares/Third_Party/CANopenNode_STM32/CO_driver_STM32.c **** 
 349:Middlewares/Third_Party/CANopenNode_STM32/CO_driver_STM32.c ****     /*
 350:Middlewares/Third_Party/CANopenNode_STM32/CO_driver_STM32.c ****      * Send message to CAN network
 351:Middlewares/Third_Party/CANopenNode_STM32/CO_driver_STM32.c ****      *
 352:Middlewares/Third_Party/CANopenNode_STM32/CO_driver_STM32.c ****      * Lock interrupts for atomic operation
 353:Middlewares/Third_Party/CANopenNode_STM32/CO_driver_STM32.c ****      */
 354:Middlewares/Third_Party/CANopenNode_STM32/CO_driver_STM32.c ****     CO_LOCK_CAN_SEND(CANmodule);
 355:Middlewares/Third_Party/CANopenNode_STM32/CO_driver_STM32.c ****     if (prv_send_can_message(CANmodule, buffer)) {
 356:Middlewares/Third_Party/CANopenNode_STM32/CO_driver_STM32.c ****         CANmodule->bufferInhibitFlag = buffer->syncFlag;
 357:Middlewares/Third_Party/CANopenNode_STM32/CO_driver_STM32.c ****     } else {
 358:Middlewares/Third_Party/CANopenNode_STM32/CO_driver_STM32.c ****         buffer->bufferFull = true;
ARM GAS  C:\Users\walker\AppData\Local\Temp\ccWw4LAW.s 			page 10


 359:Middlewares/Third_Party/CANopenNode_STM32/CO_driver_STM32.c ****         CANmodule->CANtxCount++;
 360:Middlewares/Third_Party/CANopenNode_STM32/CO_driver_STM32.c ****     }
 361:Middlewares/Third_Party/CANopenNode_STM32/CO_driver_STM32.c ****     CO_UNLOCK_CAN_SEND(CANmodule);
 362:Middlewares/Third_Party/CANopenNode_STM32/CO_driver_STM32.c **** 
 363:Middlewares/Third_Party/CANopenNode_STM32/CO_driver_STM32.c ****     return err;
 364:Middlewares/Third_Party/CANopenNode_STM32/CO_driver_STM32.c **** }
 365:Middlewares/Third_Party/CANopenNode_STM32/CO_driver_STM32.c **** 
 366:Middlewares/Third_Party/CANopenNode_STM32/CO_driver_STM32.c **** /******************************************************************************/
 367:Middlewares/Third_Party/CANopenNode_STM32/CO_driver_STM32.c **** void
 368:Middlewares/Third_Party/CANopenNode_STM32/CO_driver_STM32.c **** CO_CANclearPendingSyncPDOs(CO_CANmodule_t* CANmodule) {
 369:Middlewares/Third_Party/CANopenNode_STM32/CO_driver_STM32.c ****     uint32_t tpdoDeleted = 0U;
 370:Middlewares/Third_Party/CANopenNode_STM32/CO_driver_STM32.c **** 
 371:Middlewares/Third_Party/CANopenNode_STM32/CO_driver_STM32.c ****     CO_LOCK_CAN_SEND(CANmodule);
 372:Middlewares/Third_Party/CANopenNode_STM32/CO_driver_STM32.c ****     /* Abort message from CAN module, if there is synchronous TPDO.
 373:Middlewares/Third_Party/CANopenNode_STM32/CO_driver_STM32.c ****      * Take special care with this functionality. */
 374:Middlewares/Third_Party/CANopenNode_STM32/CO_driver_STM32.c ****     if (/*messageIsOnCanBuffer && */ CANmodule->bufferInhibitFlag) {
 375:Middlewares/Third_Party/CANopenNode_STM32/CO_driver_STM32.c ****         /* clear TXREQ */
 376:Middlewares/Third_Party/CANopenNode_STM32/CO_driver_STM32.c ****         CANmodule->bufferInhibitFlag = false;
 377:Middlewares/Third_Party/CANopenNode_STM32/CO_driver_STM32.c ****         tpdoDeleted = 1U;
 378:Middlewares/Third_Party/CANopenNode_STM32/CO_driver_STM32.c ****     }
 379:Middlewares/Third_Party/CANopenNode_STM32/CO_driver_STM32.c ****     /* delete also pending synchronous TPDOs in TX buffers */
 380:Middlewares/Third_Party/CANopenNode_STM32/CO_driver_STM32.c ****     if (CANmodule->CANtxCount > 0) {
 381:Middlewares/Third_Party/CANopenNode_STM32/CO_driver_STM32.c ****         for (uint16_t i = CANmodule->txSize; i > 0U; --i) {
 382:Middlewares/Third_Party/CANopenNode_STM32/CO_driver_STM32.c ****             if (CANmodule->txArray[i].bufferFull) {
 383:Middlewares/Third_Party/CANopenNode_STM32/CO_driver_STM32.c ****                 if (CANmodule->txArray[i].syncFlag) {
 384:Middlewares/Third_Party/CANopenNode_STM32/CO_driver_STM32.c ****                     CANmodule->txArray[i].bufferFull = false;
 385:Middlewares/Third_Party/CANopenNode_STM32/CO_driver_STM32.c ****                     CANmodule->CANtxCount--;
 386:Middlewares/Third_Party/CANopenNode_STM32/CO_driver_STM32.c ****                     tpdoDeleted = 2U;
 387:Middlewares/Third_Party/CANopenNode_STM32/CO_driver_STM32.c ****                 }
 388:Middlewares/Third_Party/CANopenNode_STM32/CO_driver_STM32.c ****             }
 389:Middlewares/Third_Party/CANopenNode_STM32/CO_driver_STM32.c ****         }
 390:Middlewares/Third_Party/CANopenNode_STM32/CO_driver_STM32.c ****     }
 391:Middlewares/Third_Party/CANopenNode_STM32/CO_driver_STM32.c ****     CO_UNLOCK_CAN_SEND(CANmodule);
 392:Middlewares/Third_Party/CANopenNode_STM32/CO_driver_STM32.c ****     if (tpdoDeleted) {
 393:Middlewares/Third_Party/CANopenNode_STM32/CO_driver_STM32.c ****         CANmodule->CANerrorStatus |= CO_CAN_ERRTX_PDO_LATE;
 394:Middlewares/Third_Party/CANopenNode_STM32/CO_driver_STM32.c ****     }
 395:Middlewares/Third_Party/CANopenNode_STM32/CO_driver_STM32.c **** }
 396:Middlewares/Third_Party/CANopenNode_STM32/CO_driver_STM32.c **** 
 397:Middlewares/Third_Party/CANopenNode_STM32/CO_driver_STM32.c **** /******************************************************************************/
 398:Middlewares/Third_Party/CANopenNode_STM32/CO_driver_STM32.c **** /* Get error counters from the module. If necessary, function may use
 399:Middlewares/Third_Party/CANopenNode_STM32/CO_driver_STM32.c ****     * different way to determine errors. */
 400:Middlewares/Third_Party/CANopenNode_STM32/CO_driver_STM32.c **** static uint16_t rxErrors = 0, txErrors = 0, overflow = 0;
 401:Middlewares/Third_Party/CANopenNode_STM32/CO_driver_STM32.c **** 
 402:Middlewares/Third_Party/CANopenNode_STM32/CO_driver_STM32.c **** void
 403:Middlewares/Third_Party/CANopenNode_STM32/CO_driver_STM32.c **** CO_CANmodule_process(CO_CANmodule_t* CANmodule) {
 404:Middlewares/Third_Party/CANopenNode_STM32/CO_driver_STM32.c ****     uint32_t err = 0;
 405:Middlewares/Third_Party/CANopenNode_STM32/CO_driver_STM32.c **** 
 406:Middlewares/Third_Party/CANopenNode_STM32/CO_driver_STM32.c ****     // CANOpen just care about Bus_off, Warning, Passive and Overflow
 407:Middlewares/Third_Party/CANopenNode_STM32/CO_driver_STM32.c ****     // I didn't find overflow error register in STM32, if you find it please let me know
 408:Middlewares/Third_Party/CANopenNode_STM32/CO_driver_STM32.c **** 
 409:Middlewares/Third_Party/CANopenNode_STM32/CO_driver_STM32.c **** #ifdef CO_STM32_FDCAN_Driver
 410:Middlewares/Third_Party/CANopenNode_STM32/CO_driver_STM32.c **** 
 411:Middlewares/Third_Party/CANopenNode_STM32/CO_driver_STM32.c ****     err = ((FDCAN_HandleTypeDef*)((CANopenNodeSTM32*)CANmodule->CANptr)->CANHandle)->Instance->PSR
 412:Middlewares/Third_Party/CANopenNode_STM32/CO_driver_STM32.c ****           & (FDCAN_PSR_BO | FDCAN_PSR_EW | FDCAN_PSR_EP);
 413:Middlewares/Third_Party/CANopenNode_STM32/CO_driver_STM32.c **** 
 414:Middlewares/Third_Party/CANopenNode_STM32/CO_driver_STM32.c ****     if (CANmodule->errOld != err) {
 415:Middlewares/Third_Party/CANopenNode_STM32/CO_driver_STM32.c **** 
ARM GAS  C:\Users\walker\AppData\Local\Temp\ccWw4LAW.s 			page 11


 416:Middlewares/Third_Party/CANopenNode_STM32/CO_driver_STM32.c ****         uint16_t status = CANmodule->CANerrorStatus;
 417:Middlewares/Third_Party/CANopenNode_STM32/CO_driver_STM32.c **** 
 418:Middlewares/Third_Party/CANopenNode_STM32/CO_driver_STM32.c ****         CANmodule->errOld = err;
 419:Middlewares/Third_Party/CANopenNode_STM32/CO_driver_STM32.c **** 
 420:Middlewares/Third_Party/CANopenNode_STM32/CO_driver_STM32.c ****         if (err & FDCAN_PSR_BO) {
 421:Middlewares/Third_Party/CANopenNode_STM32/CO_driver_STM32.c ****             status |= CO_CAN_ERRTX_BUS_OFF;
 422:Middlewares/Third_Party/CANopenNode_STM32/CO_driver_STM32.c ****             // In this driver we expect that the controller is automatically handling the protocol 
 423:Middlewares/Third_Party/CANopenNode_STM32/CO_driver_STM32.c **** 
 424:Middlewares/Third_Party/CANopenNode_STM32/CO_driver_STM32.c ****         } else {
 425:Middlewares/Third_Party/CANopenNode_STM32/CO_driver_STM32.c ****             /* recalculate CANerrorStatus, first clear some flags */
 426:Middlewares/Third_Party/CANopenNode_STM32/CO_driver_STM32.c ****             status &= 0xFFFF
 427:Middlewares/Third_Party/CANopenNode_STM32/CO_driver_STM32.c ****                       ^ (CO_CAN_ERRTX_BUS_OFF | CO_CAN_ERRRX_WARNING | CO_CAN_ERRRX_PASSIVE | CO_CA
 428:Middlewares/Third_Party/CANopenNode_STM32/CO_driver_STM32.c ****                          | CO_CAN_ERRTX_PASSIVE);
 429:Middlewares/Third_Party/CANopenNode_STM32/CO_driver_STM32.c **** 
 430:Middlewares/Third_Party/CANopenNode_STM32/CO_driver_STM32.c ****             if (err & FDCAN_PSR_EW) {
 431:Middlewares/Third_Party/CANopenNode_STM32/CO_driver_STM32.c ****                 status |= CO_CAN_ERRRX_WARNING | CO_CAN_ERRTX_WARNING;
 432:Middlewares/Third_Party/CANopenNode_STM32/CO_driver_STM32.c ****             }
 433:Middlewares/Third_Party/CANopenNode_STM32/CO_driver_STM32.c **** 
 434:Middlewares/Third_Party/CANopenNode_STM32/CO_driver_STM32.c ****             if (err & FDCAN_PSR_EP) {
 435:Middlewares/Third_Party/CANopenNode_STM32/CO_driver_STM32.c ****                 status |= CO_CAN_ERRRX_PASSIVE | CO_CAN_ERRTX_PASSIVE;
 436:Middlewares/Third_Party/CANopenNode_STM32/CO_driver_STM32.c ****             }
 437:Middlewares/Third_Party/CANopenNode_STM32/CO_driver_STM32.c ****         }
 438:Middlewares/Third_Party/CANopenNode_STM32/CO_driver_STM32.c **** 
 439:Middlewares/Third_Party/CANopenNode_STM32/CO_driver_STM32.c ****         CANmodule->CANerrorStatus = status;
 440:Middlewares/Third_Party/CANopenNode_STM32/CO_driver_STM32.c ****     }
 441:Middlewares/Third_Party/CANopenNode_STM32/CO_driver_STM32.c **** #else
 442:Middlewares/Third_Party/CANopenNode_STM32/CO_driver_STM32.c **** 
 443:Middlewares/Third_Party/CANopenNode_STM32/CO_driver_STM32.c ****     err = ((CAN_HandleTypeDef*)((CANopenNodeSTM32*)CANmodule->CANptr)->CANHandle)->Instance->ESR
 444:Middlewares/Third_Party/CANopenNode_STM32/CO_driver_STM32.c ****           & (CAN_ESR_BOFF | CAN_ESR_EPVF | CAN_ESR_EWGF);
 445:Middlewares/Third_Party/CANopenNode_STM32/CO_driver_STM32.c **** 
 446:Middlewares/Third_Party/CANopenNode_STM32/CO_driver_STM32.c ****     //    uint32_t esrVal = ((CAN_HandleTypeDef*)((CANopenNodeSTM32*)CANmodule->CANptr)->CANHandle)
 447:Middlewares/Third_Party/CANopenNode_STM32/CO_driver_STM32.c ****     if (CANmodule->errOld != err) {
 448:Middlewares/Third_Party/CANopenNode_STM32/CO_driver_STM32.c **** 
 449:Middlewares/Third_Party/CANopenNode_STM32/CO_driver_STM32.c ****         uint16_t status = CANmodule->CANerrorStatus;
 450:Middlewares/Third_Party/CANopenNode_STM32/CO_driver_STM32.c **** 
 451:Middlewares/Third_Party/CANopenNode_STM32/CO_driver_STM32.c ****         CANmodule->errOld = err;
 452:Middlewares/Third_Party/CANopenNode_STM32/CO_driver_STM32.c **** 
 453:Middlewares/Third_Party/CANopenNode_STM32/CO_driver_STM32.c ****         if (err & CAN_ESR_BOFF) {
 454:Middlewares/Third_Party/CANopenNode_STM32/CO_driver_STM32.c ****             status |= CO_CAN_ERRTX_BUS_OFF;
 455:Middlewares/Third_Party/CANopenNode_STM32/CO_driver_STM32.c ****             // In this driver, we assume that auto bus recovery is activated ! so this error will e
 456:Middlewares/Third_Party/CANopenNode_STM32/CO_driver_STM32.c **** 
 457:Middlewares/Third_Party/CANopenNode_STM32/CO_driver_STM32.c ****         } else {
 458:Middlewares/Third_Party/CANopenNode_STM32/CO_driver_STM32.c ****             /* recalculate CANerrorStatus, first clear some flags */
 459:Middlewares/Third_Party/CANopenNode_STM32/CO_driver_STM32.c ****             status &= 0xFFFF
 460:Middlewares/Third_Party/CANopenNode_STM32/CO_driver_STM32.c ****                       ^ (CO_CAN_ERRTX_BUS_OFF | CO_CAN_ERRRX_WARNING | CO_CAN_ERRRX_PASSIVE | CO_CA
 461:Middlewares/Third_Party/CANopenNode_STM32/CO_driver_STM32.c ****                          | CO_CAN_ERRTX_PASSIVE);
 462:Middlewares/Third_Party/CANopenNode_STM32/CO_driver_STM32.c **** 
 463:Middlewares/Third_Party/CANopenNode_STM32/CO_driver_STM32.c ****             if (err & CAN_ESR_EWGF) {
 464:Middlewares/Third_Party/CANopenNode_STM32/CO_driver_STM32.c ****                 status |= CO_CAN_ERRRX_WARNING | CO_CAN_ERRTX_WARNING;
 465:Middlewares/Third_Party/CANopenNode_STM32/CO_driver_STM32.c ****             }
 466:Middlewares/Third_Party/CANopenNode_STM32/CO_driver_STM32.c **** 
 467:Middlewares/Third_Party/CANopenNode_STM32/CO_driver_STM32.c ****             if (err & CAN_ESR_EPVF) {
 468:Middlewares/Third_Party/CANopenNode_STM32/CO_driver_STM32.c ****                 status |= CO_CAN_ERRRX_PASSIVE | CO_CAN_ERRTX_PASSIVE;
 469:Middlewares/Third_Party/CANopenNode_STM32/CO_driver_STM32.c ****             }
 470:Middlewares/Third_Party/CANopenNode_STM32/CO_driver_STM32.c ****         }
 471:Middlewares/Third_Party/CANopenNode_STM32/CO_driver_STM32.c **** 
 472:Middlewares/Third_Party/CANopenNode_STM32/CO_driver_STM32.c ****         CANmodule->CANerrorStatus = status;
ARM GAS  C:\Users\walker\AppData\Local\Temp\ccWw4LAW.s 			page 12


 473:Middlewares/Third_Party/CANopenNode_STM32/CO_driver_STM32.c ****     }
 474:Middlewares/Third_Party/CANopenNode_STM32/CO_driver_STM32.c **** 
 475:Middlewares/Third_Party/CANopenNode_STM32/CO_driver_STM32.c **** #endif
 476:Middlewares/Third_Party/CANopenNode_STM32/CO_driver_STM32.c **** }
 477:Middlewares/Third_Party/CANopenNode_STM32/CO_driver_STM32.c **** 
 478:Middlewares/Third_Party/CANopenNode_STM32/CO_driver_STM32.c **** /**
 479:Middlewares/Third_Party/CANopenNode_STM32/CO_driver_STM32.c ****  * \brief           Read message from RX FIFO
 480:Middlewares/Third_Party/CANopenNode_STM32/CO_driver_STM32.c ****  * \param           hfdcan: pointer to an FDCAN_HandleTypeDef structure that contains
 481:Middlewares/Third_Party/CANopenNode_STM32/CO_driver_STM32.c ****  *                      the configuration information for the specified FDCAN.
 482:Middlewares/Third_Party/CANopenNode_STM32/CO_driver_STM32.c ****  * \param[in]       fifo: Fifo number to use for read
 483:Middlewares/Third_Party/CANopenNode_STM32/CO_driver_STM32.c ****  * \param[in]       fifo_isrs: List of interrupts for respected FIFO
 484:Middlewares/Third_Party/CANopenNode_STM32/CO_driver_STM32.c ****  */
 485:Middlewares/Third_Party/CANopenNode_STM32/CO_driver_STM32.c **** #ifdef CO_STM32_FDCAN_Driver
 486:Middlewares/Third_Party/CANopenNode_STM32/CO_driver_STM32.c **** static void
 487:Middlewares/Third_Party/CANopenNode_STM32/CO_driver_STM32.c **** prv_read_can_received_msg(FDCAN_HandleTypeDef* hfdcan, uint32_t fifo, uint32_t fifo_isrs)
 488:Middlewares/Third_Party/CANopenNode_STM32/CO_driver_STM32.c **** #else
 489:Middlewares/Third_Party/CANopenNode_STM32/CO_driver_STM32.c **** static void
 490:Middlewares/Third_Party/CANopenNode_STM32/CO_driver_STM32.c **** prv_read_can_received_msg(CAN_HandleTypeDef* hcan, uint32_t fifo, uint32_t fifo_isrs)
 491:Middlewares/Third_Party/CANopenNode_STM32/CO_driver_STM32.c **** #endif
 492:Middlewares/Third_Party/CANopenNode_STM32/CO_driver_STM32.c **** {
 137              		.loc 1 492 1 is_stmt 1 view -0
 138              		.cfi_startproc
 139              		@ args = 0, pretend = 0, frame = 16
 140              		@ frame_needed = 0, uses_anonymous_args = 0
 141              		.loc 1 492 1 is_stmt 0 view .LVU34
 142 0000 30B5     		push	{r4, r5, lr}
 143              	.LCFI4:
 144              		.cfi_def_cfa_offset 12
 145              		.cfi_offset 4, -12
 146              		.cfi_offset 5, -8
 147              		.cfi_offset 14, -4
 148 0002 85B0     		sub	sp, sp, #20
 149              	.LCFI5:
 150              		.cfi_def_cfa_offset 32
 493:Middlewares/Third_Party/CANopenNode_STM32/CO_driver_STM32.c **** 
 494:Middlewares/Third_Party/CANopenNode_STM32/CO_driver_STM32.c ****     CO_CANrxMsg_t rcvMsg;
 151              		.loc 1 494 5 is_stmt 1 view .LVU35
 495:Middlewares/Third_Party/CANopenNode_STM32/CO_driver_STM32.c ****     CO_CANrx_t* buffer = NULL; /* receive message buffer from CO_CANmodule_t object. */
 152              		.loc 1 495 5 view .LVU36
 153              	.LVL9:
 496:Middlewares/Third_Party/CANopenNode_STM32/CO_driver_STM32.c ****     uint16_t index;            /* index of received message */
 154              		.loc 1 496 5 view .LVU37
 497:Middlewares/Third_Party/CANopenNode_STM32/CO_driver_STM32.c ****     uint32_t rcvMsgIdent;      /* identifier of the received message */
 155              		.loc 1 497 5 view .LVU38
 498:Middlewares/Third_Party/CANopenNode_STM32/CO_driver_STM32.c ****     uint8_t messageFound = 0;
 156              		.loc 1 498 5 view .LVU39
 499:Middlewares/Third_Party/CANopenNode_STM32/CO_driver_STM32.c **** 
 500:Middlewares/Third_Party/CANopenNode_STM32/CO_driver_STM32.c **** #ifdef CO_STM32_FDCAN_Driver
 501:Middlewares/Third_Party/CANopenNode_STM32/CO_driver_STM32.c ****     static FDCAN_RxHeaderTypeDef rx_hdr;
 502:Middlewares/Third_Party/CANopenNode_STM32/CO_driver_STM32.c ****     /* Read received message from FIFO */
 503:Middlewares/Third_Party/CANopenNode_STM32/CO_driver_STM32.c ****     if (HAL_FDCAN_GetRxMessage(hfdcan, fifo, &rx_hdr, rcvMsg.data) != HAL_OK) {
 504:Middlewares/Third_Party/CANopenNode_STM32/CO_driver_STM32.c ****         return;
 505:Middlewares/Third_Party/CANopenNode_STM32/CO_driver_STM32.c ****     }
 506:Middlewares/Third_Party/CANopenNode_STM32/CO_driver_STM32.c ****     /* Setup identifier (with RTR) and length */
 507:Middlewares/Third_Party/CANopenNode_STM32/CO_driver_STM32.c ****     rcvMsg.ident = rx_hdr.Identifier | (rx_hdr.RxFrameType == FDCAN_REMOTE_FRAME ? FLAG_RTR : 0x00)
 508:Middlewares/Third_Party/CANopenNode_STM32/CO_driver_STM32.c ****     switch (rx_hdr.DataLength) {
 509:Middlewares/Third_Party/CANopenNode_STM32/CO_driver_STM32.c ****         case FDCAN_DLC_BYTES_0:
ARM GAS  C:\Users\walker\AppData\Local\Temp\ccWw4LAW.s 			page 13


 510:Middlewares/Third_Party/CANopenNode_STM32/CO_driver_STM32.c ****             rcvMsg.dlc = 0;
 511:Middlewares/Third_Party/CANopenNode_STM32/CO_driver_STM32.c ****             break;
 512:Middlewares/Third_Party/CANopenNode_STM32/CO_driver_STM32.c ****         case FDCAN_DLC_BYTES_1:
 513:Middlewares/Third_Party/CANopenNode_STM32/CO_driver_STM32.c ****             rcvMsg.dlc = 1;
 514:Middlewares/Third_Party/CANopenNode_STM32/CO_driver_STM32.c ****             break;
 515:Middlewares/Third_Party/CANopenNode_STM32/CO_driver_STM32.c ****         case FDCAN_DLC_BYTES_2:
 516:Middlewares/Third_Party/CANopenNode_STM32/CO_driver_STM32.c ****             rcvMsg.dlc = 2;
 517:Middlewares/Third_Party/CANopenNode_STM32/CO_driver_STM32.c ****             break;
 518:Middlewares/Third_Party/CANopenNode_STM32/CO_driver_STM32.c ****         case FDCAN_DLC_BYTES_3:
 519:Middlewares/Third_Party/CANopenNode_STM32/CO_driver_STM32.c ****             rcvMsg.dlc = 3;
 520:Middlewares/Third_Party/CANopenNode_STM32/CO_driver_STM32.c ****             break;
 521:Middlewares/Third_Party/CANopenNode_STM32/CO_driver_STM32.c ****         case FDCAN_DLC_BYTES_4:
 522:Middlewares/Third_Party/CANopenNode_STM32/CO_driver_STM32.c ****             rcvMsg.dlc = 4;
 523:Middlewares/Third_Party/CANopenNode_STM32/CO_driver_STM32.c ****             break;
 524:Middlewares/Third_Party/CANopenNode_STM32/CO_driver_STM32.c ****         case FDCAN_DLC_BYTES_5:
 525:Middlewares/Third_Party/CANopenNode_STM32/CO_driver_STM32.c ****             rcvMsg.dlc = 5;
 526:Middlewares/Third_Party/CANopenNode_STM32/CO_driver_STM32.c ****             break;
 527:Middlewares/Third_Party/CANopenNode_STM32/CO_driver_STM32.c ****         case FDCAN_DLC_BYTES_6:
 528:Middlewares/Third_Party/CANopenNode_STM32/CO_driver_STM32.c ****             rcvMsg.dlc = 6;
 529:Middlewares/Third_Party/CANopenNode_STM32/CO_driver_STM32.c ****             break;
 530:Middlewares/Third_Party/CANopenNode_STM32/CO_driver_STM32.c ****         case FDCAN_DLC_BYTES_7:
 531:Middlewares/Third_Party/CANopenNode_STM32/CO_driver_STM32.c ****             rcvMsg.dlc = 7;
 532:Middlewares/Third_Party/CANopenNode_STM32/CO_driver_STM32.c ****             break;
 533:Middlewares/Third_Party/CANopenNode_STM32/CO_driver_STM32.c ****         case FDCAN_DLC_BYTES_8:
 534:Middlewares/Third_Party/CANopenNode_STM32/CO_driver_STM32.c ****             rcvMsg.dlc = 8;
 535:Middlewares/Third_Party/CANopenNode_STM32/CO_driver_STM32.c ****             break;
 536:Middlewares/Third_Party/CANopenNode_STM32/CO_driver_STM32.c ****         default:
 537:Middlewares/Third_Party/CANopenNode_STM32/CO_driver_STM32.c ****             rcvMsg.dlc = 0;
 538:Middlewares/Third_Party/CANopenNode_STM32/CO_driver_STM32.c ****             break; /* Invalid length when more than 8 */
 539:Middlewares/Third_Party/CANopenNode_STM32/CO_driver_STM32.c ****     }
 540:Middlewares/Third_Party/CANopenNode_STM32/CO_driver_STM32.c ****     rcvMsgIdent = rcvMsg.ident;
 541:Middlewares/Third_Party/CANopenNode_STM32/CO_driver_STM32.c **** #else
 542:Middlewares/Third_Party/CANopenNode_STM32/CO_driver_STM32.c ****     static CAN_RxHeaderTypeDef rx_hdr;
 157              		.loc 1 542 5 view .LVU40
 543:Middlewares/Third_Party/CANopenNode_STM32/CO_driver_STM32.c ****     /* Read received message from FIFO */
 544:Middlewares/Third_Party/CANopenNode_STM32/CO_driver_STM32.c ****     if (HAL_CAN_GetRxMessage(hcan, fifo, &rx_hdr, rcvMsg.data) != HAL_OK) {
 158              		.loc 1 544 5 view .LVU41
 159              		.loc 1 544 9 is_stmt 0 view .LVU42
 160 0004 0DF10503 		add	r3, sp, #5
 161 0008 194A     		ldr	r2, .L21
 162              	.LVL10:
 163              		.loc 1 544 9 view .LVU43
 164 000a FFF7FEFF 		bl	HAL_CAN_GetRxMessage
 165              	.LVL11:
 166              		.loc 1 544 8 view .LVU44
 167 000e 88B9     		cbnz	r0, .L8
 168 0010 0546     		mov	r5, r0
 545:Middlewares/Third_Party/CANopenNode_STM32/CO_driver_STM32.c ****         return;
 546:Middlewares/Third_Party/CANopenNode_STM32/CO_driver_STM32.c ****     }
 547:Middlewares/Third_Party/CANopenNode_STM32/CO_driver_STM32.c ****     /* Setup identifier (with RTR) and length */
 548:Middlewares/Third_Party/CANopenNode_STM32/CO_driver_STM32.c ****     rcvMsg.ident = rx_hdr.StdId | (rx_hdr.RTR == CAN_RTR_REMOTE ? FLAG_RTR : 0x00);
 169              		.loc 1 548 5 is_stmt 1 view .LVU45
 170              		.loc 1 548 26 is_stmt 0 view .LVU46
 171 0012 174B     		ldr	r3, .L21
 172 0014 1C68     		ldr	r4, [r3]
 173              		.loc 1 548 42 view .LVU47
 174 0016 DB68     		ldr	r3, [r3, #12]
ARM GAS  C:\Users\walker\AppData\Local\Temp\ccWw4LAW.s 			page 14


 175              		.loc 1 548 76 view .LVU48
 176 0018 022B     		cmp	r3, #2
 177 001a 0DD0     		beq	.L20
 178 001c 0023     		movs	r3, #0
 179              	.L11:
 180              		.loc 1 548 33 discriminator 4 view .LVU49
 181 001e 1C43     		orrs	r4, r4, r3
 182              		.loc 1 548 18 discriminator 4 view .LVU50
 183 0020 0094     		str	r4, [sp]
 549:Middlewares/Third_Party/CANopenNode_STM32/CO_driver_STM32.c ****     rcvMsg.dlc = rx_hdr.DLC;
 184              		.loc 1 549 5 is_stmt 1 discriminator 4 view .LVU51
 185              		.loc 1 549 24 is_stmt 0 discriminator 4 view .LVU52
 186 0022 134B     		ldr	r3, .L21
 187 0024 1B69     		ldr	r3, [r3, #16]
 188              		.loc 1 549 16 discriminator 4 view .LVU53
 189 0026 8DF80430 		strb	r3, [sp, #4]
 550:Middlewares/Third_Party/CANopenNode_STM32/CO_driver_STM32.c ****     rcvMsgIdent = rcvMsg.ident;
 190              		.loc 1 550 5 is_stmt 1 discriminator 4 view .LVU54
 191              	.LVL12:
 551:Middlewares/Third_Party/CANopenNode_STM32/CO_driver_STM32.c **** #endif
 552:Middlewares/Third_Party/CANopenNode_STM32/CO_driver_STM32.c **** 
 553:Middlewares/Third_Party/CANopenNode_STM32/CO_driver_STM32.c ****     /*
 554:Middlewares/Third_Party/CANopenNode_STM32/CO_driver_STM32.c ****      * Hardware filters are not used for the moment
 555:Middlewares/Third_Party/CANopenNode_STM32/CO_driver_STM32.c ****      * \todo: Implement hardware filters...
 556:Middlewares/Third_Party/CANopenNode_STM32/CO_driver_STM32.c ****      */
 557:Middlewares/Third_Party/CANopenNode_STM32/CO_driver_STM32.c ****     if (CANModule_local->useCANrxFilters) {
 192              		.loc 1 557 5 discriminator 4 view .LVU55
 193              		.loc 1 557 24 is_stmt 0 discriminator 4 view .LVU56
 194 002a 124B     		ldr	r3, .L21+4
 195 002c 1B68     		ldr	r3, [r3]
 196 002e 9A69     		ldr	r2, [r3, #24]
 197              		.loc 1 557 8 discriminator 4 view .LVU57
 198 0030 2AB1     		cbz	r2, .L12
 558:Middlewares/Third_Party/CANopenNode_STM32/CO_driver_STM32.c ****         __BKPT(0);
 199              		.loc 1 558 9 is_stmt 1 view .LVU58
 200              		.syntax unified
 201              	@ 558 "Middlewares/Third_Party/CANopenNode_STM32/CO_driver_STM32.c" 1
 202 0032 00BE     		bkpt 0
 203              	@ 0 "" 2
 559:Middlewares/Third_Party/CANopenNode_STM32/CO_driver_STM32.c ****     } else {
 560:Middlewares/Third_Party/CANopenNode_STM32/CO_driver_STM32.c ****         /*
 561:Middlewares/Third_Party/CANopenNode_STM32/CO_driver_STM32.c ****          * We are not using hardware filters, hence it is necessary
 562:Middlewares/Third_Party/CANopenNode_STM32/CO_driver_STM32.c ****          * to manually match received message ID with all buffers
 563:Middlewares/Third_Party/CANopenNode_STM32/CO_driver_STM32.c ****          */
 564:Middlewares/Third_Party/CANopenNode_STM32/CO_driver_STM32.c ****         buffer = CANModule_local->rxArray;
 565:Middlewares/Third_Party/CANopenNode_STM32/CO_driver_STM32.c ****         for (index = CANModule_local->rxSize; index > 0U; --index, ++buffer) {
 566:Middlewares/Third_Party/CANopenNode_STM32/CO_driver_STM32.c ****             if (((rcvMsgIdent ^ buffer->ident) & buffer->mask) == 0U) {
 567:Middlewares/Third_Party/CANopenNode_STM32/CO_driver_STM32.c ****                 messageFound = 1;
 568:Middlewares/Third_Party/CANopenNode_STM32/CO_driver_STM32.c ****                 break;
 569:Middlewares/Third_Party/CANopenNode_STM32/CO_driver_STM32.c ****             }
 570:Middlewares/Third_Party/CANopenNode_STM32/CO_driver_STM32.c ****         }
 571:Middlewares/Third_Party/CANopenNode_STM32/CO_driver_STM32.c ****     }
 572:Middlewares/Third_Party/CANopenNode_STM32/CO_driver_STM32.c **** 
 573:Middlewares/Third_Party/CANopenNode_STM32/CO_driver_STM32.c ****     /* Call specific function, which will process the message */
 574:Middlewares/Third_Party/CANopenNode_STM32/CO_driver_STM32.c ****     if (messageFound && buffer != NULL && buffer->CANrx_callback != NULL) {
 204              		.loc 1 574 5 view .LVU59
 205              	.LVL13:
ARM GAS  C:\Users\walker\AppData\Local\Temp\ccWw4LAW.s 			page 15


 206              		.thumb
 207              		.syntax unified
 208              	.L8:
 575:Middlewares/Third_Party/CANopenNode_STM32/CO_driver_STM32.c ****         buffer->CANrx_callback(buffer->object, (void*)&rcvMsg);
 576:Middlewares/Third_Party/CANopenNode_STM32/CO_driver_STM32.c ****     }
 577:Middlewares/Third_Party/CANopenNode_STM32/CO_driver_STM32.c **** }
 209              		.loc 1 577 1 is_stmt 0 view .LVU60
 210 0034 05B0     		add	sp, sp, #20
 211              	.LCFI6:
 212              		.cfi_remember_state
 213              		.cfi_def_cfa_offset 12
 214              		@ sp needed
 215 0036 30BD     		pop	{r4, r5, pc}
 216              	.LVL14:
 217              	.L20:
 218              	.LCFI7:
 219              		.cfi_restore_state
 548:Middlewares/Third_Party/CANopenNode_STM32/CO_driver_STM32.c ****     rcvMsg.dlc = rx_hdr.DLC;
 220              		.loc 1 548 76 view .LVU61
 221 0038 4FF40043 		mov	r3, #32768
 222 003c EFE7     		b	.L11
 223              	.LVL15:
 224              	.L12:
 564:Middlewares/Third_Party/CANopenNode_STM32/CO_driver_STM32.c ****         for (index = CANModule_local->rxSize; index > 0U; --index, ++buffer) {
 225              		.loc 1 564 9 is_stmt 1 view .LVU62
 564:Middlewares/Third_Party/CANopenNode_STM32/CO_driver_STM32.c ****         for (index = CANModule_local->rxSize; index > 0U; --index, ++buffer) {
 226              		.loc 1 564 16 is_stmt 0 view .LVU63
 227 003e 5A68     		ldr	r2, [r3, #4]
 228              	.LVL16:
 565:Middlewares/Third_Party/CANopenNode_STM32/CO_driver_STM32.c ****             if (((rcvMsgIdent ^ buffer->ident) & buffer->mask) == 0U) {
 229              		.loc 1 565 9 is_stmt 1 view .LVU64
 565:Middlewares/Third_Party/CANopenNode_STM32/CO_driver_STM32.c ****             if (((rcvMsgIdent ^ buffer->ident) & buffer->mask) == 0U) {
 230              		.loc 1 565 20 is_stmt 0 view .LVU65
 231 0040 1B89     		ldrh	r3, [r3, #8]
 232              	.LVL17:
 233              	.L14:
 565:Middlewares/Third_Party/CANopenNode_STM32/CO_driver_STM32.c ****             if (((rcvMsgIdent ^ buffer->ident) & buffer->mask) == 0U) {
 234              		.loc 1 565 47 is_stmt 1 discriminator 1 view .LVU66
 565:Middlewares/Third_Party/CANopenNode_STM32/CO_driver_STM32.c ****             if (((rcvMsgIdent ^ buffer->ident) & buffer->mask) == 0U) {
 235              		.loc 1 565 9 is_stmt 0 discriminator 1 view .LVU67
 236 0042 4BB1     		cbz	r3, .L15
 566:Middlewares/Third_Party/CANopenNode_STM32/CO_driver_STM32.c ****                 messageFound = 1;
 237              		.loc 1 566 13 is_stmt 1 view .LVU68
 566:Middlewares/Third_Party/CANopenNode_STM32/CO_driver_STM32.c ****                 messageFound = 1;
 238              		.loc 1 566 39 is_stmt 0 view .LVU69
 239 0044 1188     		ldrh	r1, [r2]
 566:Middlewares/Third_Party/CANopenNode_STM32/CO_driver_STM32.c ****                 messageFound = 1;
 240              		.loc 1 566 31 view .LVU70
 241 0046 6140     		eors	r1, r1, r4
 566:Middlewares/Third_Party/CANopenNode_STM32/CO_driver_STM32.c ****                 messageFound = 1;
 242              		.loc 1 566 56 view .LVU71
 243 0048 5088     		ldrh	r0, [r2, #2]
 566:Middlewares/Third_Party/CANopenNode_STM32/CO_driver_STM32.c ****                 messageFound = 1;
 244              		.loc 1 566 16 view .LVU72
 245 004a 0142     		tst	r1, r0
 246 004c 03D0     		beq	.L18
 565:Middlewares/Third_Party/CANopenNode_STM32/CO_driver_STM32.c ****             if (((rcvMsgIdent ^ buffer->ident) & buffer->mask) == 0U) {
ARM GAS  C:\Users\walker\AppData\Local\Temp\ccWw4LAW.s 			page 16


 247              		.loc 1 565 59 is_stmt 1 discriminator 2 view .LVU73
 248 004e 013B     		subs	r3, r3, #1
 249              	.LVL18:
 565:Middlewares/Third_Party/CANopenNode_STM32/CO_driver_STM32.c ****             if (((rcvMsgIdent ^ buffer->ident) & buffer->mask) == 0U) {
 250              		.loc 1 565 59 is_stmt 0 discriminator 2 view .LVU74
 251 0050 9BB2     		uxth	r3, r3
 252              	.LVL19:
 565:Middlewares/Third_Party/CANopenNode_STM32/CO_driver_STM32.c ****             if (((rcvMsgIdent ^ buffer->ident) & buffer->mask) == 0U) {
 253              		.loc 1 565 68 discriminator 2 view .LVU75
 254 0052 0C32     		adds	r2, r2, #12
 255              	.LVL20:
 565:Middlewares/Third_Party/CANopenNode_STM32/CO_driver_STM32.c ****             if (((rcvMsgIdent ^ buffer->ident) & buffer->mask) == 0U) {
 256              		.loc 1 565 68 discriminator 2 view .LVU76
 257 0054 F5E7     		b	.L14
 258              	.L18:
 567:Middlewares/Third_Party/CANopenNode_STM32/CO_driver_STM32.c ****                 break;
 259              		.loc 1 567 30 view .LVU77
 260 0056 0125     		movs	r5, #1
 261              	.L15:
 262              	.LVL21:
 574:Middlewares/Third_Party/CANopenNode_STM32/CO_driver_STM32.c ****         buffer->CANrx_callback(buffer->object, (void*)&rcvMsg);
 263              		.loc 1 574 5 is_stmt 1 view .LVU78
 574:Middlewares/Third_Party/CANopenNode_STM32/CO_driver_STM32.c ****         buffer->CANrx_callback(buffer->object, (void*)&rcvMsg);
 264              		.loc 1 574 8 is_stmt 0 view .LVU79
 265 0058 002D     		cmp	r5, #0
 266 005a EBD0     		beq	.L8
 574:Middlewares/Third_Party/CANopenNode_STM32/CO_driver_STM32.c ****         buffer->CANrx_callback(buffer->object, (void*)&rcvMsg);
 267              		.loc 1 574 22 discriminator 1 view .LVU80
 268 005c 002A     		cmp	r2, #0
 269 005e E9D0     		beq	.L8
 574:Middlewares/Third_Party/CANopenNode_STM32/CO_driver_STM32.c ****         buffer->CANrx_callback(buffer->object, (void*)&rcvMsg);
 270              		.loc 1 574 49 discriminator 2 view .LVU81
 271 0060 9368     		ldr	r3, [r2, #8]
 272              	.LVL22:
 574:Middlewares/Third_Party/CANopenNode_STM32/CO_driver_STM32.c ****         buffer->CANrx_callback(buffer->object, (void*)&rcvMsg);
 273              		.loc 1 574 40 discriminator 2 view .LVU82
 274 0062 002B     		cmp	r3, #0
 275 0064 E6D0     		beq	.L8
 575:Middlewares/Third_Party/CANopenNode_STM32/CO_driver_STM32.c ****     }
 276              		.loc 1 575 9 is_stmt 1 view .LVU83
 277 0066 6946     		mov	r1, sp
 278 0068 5068     		ldr	r0, [r2, #4]
 279 006a 9847     		blx	r3
 280              	.LVL23:
 575:Middlewares/Third_Party/CANopenNode_STM32/CO_driver_STM32.c ****     }
 281              		.loc 1 575 9 is_stmt 0 view .LVU84
 282 006c E2E7     		b	.L8
 283              	.L22:
 284 006e 00BF     		.align	2
 285              	.L21:
 286 0070 00000000 		.word	.LANCHOR1
 287 0074 00000000 		.word	.LANCHOR2
 288              		.cfi_endproc
 289              	.LFE174:
 291              		.section	.text.CO_CANsetConfigurationMode,"ax",%progbits
 292              		.align	1
 293              		.global	CO_CANsetConfigurationMode
ARM GAS  C:\Users\walker\AppData\Local\Temp\ccWw4LAW.s 			page 17


 294              		.syntax unified
 295              		.thumb
 296              		.thumb_func
 298              	CO_CANsetConfigurationMode:
 299              	.LVL24:
 300              	.LFB164:
  43:Middlewares/Third_Party/CANopenNode_STM32/CO_driver_STM32.c ****     /* Put CAN module in configuration mode */
 301              		.loc 1 43 42 is_stmt 1 view -0
 302              		.cfi_startproc
 303              		@ args = 0, pretend = 0, frame = 0
 304              		@ frame_needed = 0, uses_anonymous_args = 0
  45:Middlewares/Third_Party/CANopenNode_STM32/CO_driver_STM32.c **** #ifdef CO_STM32_FDCAN_Driver
 305              		.loc 1 45 5 view .LVU86
  45:Middlewares/Third_Party/CANopenNode_STM32/CO_driver_STM32.c **** #ifdef CO_STM32_FDCAN_Driver
 306              		.loc 1 45 8 is_stmt 0 view .LVU87
 307 0000 20B1     		cbz	r0, .L26
  43:Middlewares/Third_Party/CANopenNode_STM32/CO_driver_STM32.c ****     /* Put CAN module in configuration mode */
 308              		.loc 1 43 42 view .LVU88
 309 0002 08B5     		push	{r3, lr}
 310              	.LCFI8:
 311              		.cfi_def_cfa_offset 8
 312              		.cfi_offset 3, -8
 313              		.cfi_offset 14, -4
  49:Middlewares/Third_Party/CANopenNode_STM32/CO_driver_STM32.c **** #endif
 314              		.loc 1 49 9 is_stmt 1 view .LVU89
 315 0004 8068     		ldr	r0, [r0, #8]
 316              	.LVL25:
  49:Middlewares/Third_Party/CANopenNode_STM32/CO_driver_STM32.c **** #endif
 317              		.loc 1 49 9 is_stmt 0 view .LVU90
 318 0006 FFF7FEFF 		bl	HAL_CAN_Stop
 319              	.LVL26:
  52:Middlewares/Third_Party/CANopenNode_STM32/CO_driver_STM32.c **** 
 320              		.loc 1 52 1 view .LVU91
 321 000a 08BD     		pop	{r3, pc}
 322              	.LVL27:
 323              	.L26:
 324              	.LCFI9:
 325              		.cfi_def_cfa_offset 0
 326              		.cfi_restore 3
 327              		.cfi_restore 14
  52:Middlewares/Third_Party/CANopenNode_STM32/CO_driver_STM32.c **** 
 328              		.loc 1 52 1 view .LVU92
 329 000c 7047     		bx	lr
 330              		.cfi_endproc
 331              	.LFE164:
 333              		.section	.text.CO_CANsetNormalMode,"ax",%progbits
 334              		.align	1
 335              		.global	CO_CANsetNormalMode
 336              		.syntax unified
 337              		.thumb
 338              		.thumb_func
 340              	CO_CANsetNormalMode:
 341              	.LVL28:
 342              	.LFB165:
  56:Middlewares/Third_Party/CANopenNode_STM32/CO_driver_STM32.c ****     /* Put CAN module in normal mode */
 343              		.loc 1 56 48 is_stmt 1 view -0
 344              		.cfi_startproc
ARM GAS  C:\Users\walker\AppData\Local\Temp\ccWw4LAW.s 			page 18


 345              		@ args = 0, pretend = 0, frame = 0
 346              		@ frame_needed = 0, uses_anonymous_args = 0
  58:Middlewares/Third_Party/CANopenNode_STM32/CO_driver_STM32.c **** #ifdef CO_STM32_FDCAN_Driver
 347              		.loc 1 58 5 view .LVU94
  58:Middlewares/Third_Party/CANopenNode_STM32/CO_driver_STM32.c **** #ifdef CO_STM32_FDCAN_Driver
 348              		.loc 1 58 18 is_stmt 0 view .LVU95
 349 0000 0368     		ldr	r3, [r0]
  58:Middlewares/Third_Party/CANopenNode_STM32/CO_driver_STM32.c **** #ifdef CO_STM32_FDCAN_Driver
 350              		.loc 1 58 8 view .LVU96
 351 0002 43B1     		cbz	r3, .L32
  56:Middlewares/Third_Party/CANopenNode_STM32/CO_driver_STM32.c ****     /* Put CAN module in normal mode */
 352              		.loc 1 56 48 view .LVU97
 353 0004 10B5     		push	{r4, lr}
 354              	.LCFI10:
 355              		.cfi_def_cfa_offset 8
 356              		.cfi_offset 4, -8
 357              		.cfi_offset 14, -4
 358 0006 0446     		mov	r4, r0
  62:Middlewares/Third_Party/CANopenNode_STM32/CO_driver_STM32.c **** #endif
 359              		.loc 1 62 9 is_stmt 1 view .LVU98
  62:Middlewares/Third_Party/CANopenNode_STM32/CO_driver_STM32.c **** #endif
 360              		.loc 1 62 13 is_stmt 0 view .LVU99
 361 0008 9868     		ldr	r0, [r3, #8]
 362              	.LVL29:
  62:Middlewares/Third_Party/CANopenNode_STM32/CO_driver_STM32.c **** #endif
 363              		.loc 1 62 13 view .LVU100
 364 000a FFF7FEFF 		bl	HAL_CAN_Start
 365              	.LVL30:
  62:Middlewares/Third_Party/CANopenNode_STM32/CO_driver_STM32.c **** #endif
 366              		.loc 1 62 12 view .LVU101
 367 000e 08B9     		cbnz	r0, .L29
  65:Middlewares/Third_Party/CANopenNode_STM32/CO_driver_STM32.c ****         }
 368              		.loc 1 65 13 is_stmt 1 view .LVU102
  65:Middlewares/Third_Party/CANopenNode_STM32/CO_driver_STM32.c ****         }
 369              		.loc 1 65 34 is_stmt 0 view .LVU103
 370 0010 0123     		movs	r3, #1
 371 0012 6361     		str	r3, [r4, #20]
 372              	.L29:
  68:Middlewares/Third_Party/CANopenNode_STM32/CO_driver_STM32.c **** 
 373              		.loc 1 68 1 view .LVU104
 374 0014 10BD     		pop	{r4, pc}
 375              	.LVL31:
 376              	.L32:
 377              	.LCFI11:
 378              		.cfi_def_cfa_offset 0
 379              		.cfi_restore 4
 380              		.cfi_restore 14
  68:Middlewares/Third_Party/CANopenNode_STM32/CO_driver_STM32.c **** 
 381              		.loc 1 68 1 view .LVU105
 382 0016 7047     		bx	lr
 383              		.cfi_endproc
 384              	.LFE165:
 386              		.section	.text.CO_CANmodule_init,"ax",%progbits
 387              		.align	1
 388              		.global	CO_CANmodule_init
 389              		.syntax unified
 390              		.thumb
ARM GAS  C:\Users\walker\AppData\Local\Temp\ccWw4LAW.s 			page 19


 391              		.thumb_func
 393              	CO_CANmodule_init:
 394              	.LVL32:
 395              	.LFB166:
  73:Middlewares/Third_Party/CANopenNode_STM32/CO_driver_STM32.c **** 
 396              		.loc 1 73 57 is_stmt 1 view -0
 397              		.cfi_startproc
 398              		@ args = 12, pretend = 0, frame = 40
 399              		@ frame_needed = 0, uses_anonymous_args = 0
  73:Middlewares/Third_Party/CANopenNode_STM32/CO_driver_STM32.c **** 
 400              		.loc 1 73 57 is_stmt 0 view .LVU107
 401 0000 70B5     		push	{r4, r5, r6, lr}
 402              	.LCFI12:
 403              		.cfi_def_cfa_offset 16
 404              		.cfi_offset 4, -16
 405              		.cfi_offset 5, -12
 406              		.cfi_offset 6, -8
 407              		.cfi_offset 14, -4
 408 0002 8AB0     		sub	sp, sp, #40
 409              	.LCFI13:
 410              		.cfi_def_cfa_offset 56
 411 0004 0E9D     		ldr	r5, [sp, #56]
 412 0006 BDF83CE0 		ldrh	lr, [sp, #60]
  76:Middlewares/Third_Party/CANopenNode_STM32/CO_driver_STM32.c ****         return CO_ERROR_ILLEGAL_ARGUMENT;
 413              		.loc 1 76 5 is_stmt 1 view .LVU108
  76:Middlewares/Third_Party/CANopenNode_STM32/CO_driver_STM32.c ****         return CO_ERROR_ILLEGAL_ARGUMENT;
 414              		.loc 1 76 8 is_stmt 0 view .LVU109
 415 000a 0028     		cmp	r0, #0
 416 000c 52D0     		beq	.L41
 417 000e 0C46     		mov	r4, r1
 418 0010 0146     		mov	r1, r0
 419              	.LVL33:
  76:Middlewares/Third_Party/CANopenNode_STM32/CO_driver_STM32.c ****         return CO_ERROR_ILLEGAL_ARGUMENT;
 420              		.loc 1 76 27 discriminator 1 view .LVU110
 421 0012 002A     		cmp	r2, #0
 422 0014 51D0     		beq	.L42
  76:Middlewares/Third_Party/CANopenNode_STM32/CO_driver_STM32.c ****         return CO_ERROR_ILLEGAL_ARGUMENT;
 423              		.loc 1 76 46 discriminator 2 view .LVU111
 424 0016 002D     		cmp	r5, #0
 425 0018 52D0     		beq	.L43
  81:Middlewares/Third_Party/CANopenNode_STM32/CO_driver_STM32.c **** 
 426              		.loc 1 81 5 is_stmt 1 view .LVU112
  81:Middlewares/Third_Party/CANopenNode_STM32/CO_driver_STM32.c **** 
 427              		.loc 1 81 23 is_stmt 0 view .LVU113
 428 001a 0460     		str	r4, [r0]
  84:Middlewares/Third_Party/CANopenNode_STM32/CO_driver_STM32.c **** 
 429              		.loc 1 84 5 is_stmt 1 view .LVU114
  84:Middlewares/Third_Party/CANopenNode_STM32/CO_driver_STM32.c **** 
 430              		.loc 1 84 21 is_stmt 0 view .LVU115
 431 001c 2D48     		ldr	r0, .L47
 432              	.LVL34:
  84:Middlewares/Third_Party/CANopenNode_STM32/CO_driver_STM32.c **** 
 433              		.loc 1 84 21 view .LVU116
 434 001e 0160     		str	r1, [r0]
  87:Middlewares/Third_Party/CANopenNode_STM32/CO_driver_STM32.c ****     CANmodule->rxSize = rxSize;
 435              		.loc 1 87 5 is_stmt 1 view .LVU117
  87:Middlewares/Third_Party/CANopenNode_STM32/CO_driver_STM32.c ****     CANmodule->rxSize = rxSize;
ARM GAS  C:\Users\walker\AppData\Local\Temp\ccWw4LAW.s 			page 20


 436              		.loc 1 87 24 is_stmt 0 view .LVU118
 437 0020 4A60     		str	r2, [r1, #4]
  88:Middlewares/Third_Party/CANopenNode_STM32/CO_driver_STM32.c ****     CANmodule->txArray = txArray;
 438              		.loc 1 88 5 is_stmt 1 view .LVU119
  88:Middlewares/Third_Party/CANopenNode_STM32/CO_driver_STM32.c ****     CANmodule->txArray = txArray;
 439              		.loc 1 88 23 is_stmt 0 view .LVU120
 440 0022 0B81     		strh	r3, [r1, #8]	@ movhi
  89:Middlewares/Third_Party/CANopenNode_STM32/CO_driver_STM32.c ****     CANmodule->txSize = txSize;
 441              		.loc 1 89 5 is_stmt 1 view .LVU121
  89:Middlewares/Third_Party/CANopenNode_STM32/CO_driver_STM32.c ****     CANmodule->txSize = txSize;
 442              		.loc 1 89 24 is_stmt 0 view .LVU122
 443 0024 CD60     		str	r5, [r1, #12]
  90:Middlewares/Third_Party/CANopenNode_STM32/CO_driver_STM32.c ****     CANmodule->CANerrorStatus = 0;
 444              		.loc 1 90 5 is_stmt 1 view .LVU123
  90:Middlewares/Third_Party/CANopenNode_STM32/CO_driver_STM32.c ****     CANmodule->CANerrorStatus = 0;
 445              		.loc 1 90 23 is_stmt 0 view .LVU124
 446 0026 A1F810E0 		strh	lr, [r1, #16]	@ movhi
  91:Middlewares/Third_Party/CANopenNode_STM32/CO_driver_STM32.c ****     CANmodule->CANnormal = false;
 447              		.loc 1 91 5 is_stmt 1 view .LVU125
  91:Middlewares/Third_Party/CANopenNode_STM32/CO_driver_STM32.c ****     CANmodule->CANnormal = false;
 448              		.loc 1 91 31 is_stmt 0 view .LVU126
 449 002a 0020     		movs	r0, #0
 450 002c 4882     		strh	r0, [r1, #18]	@ movhi
  92:Middlewares/Third_Party/CANopenNode_STM32/CO_driver_STM32.c ****     CANmodule->useCANrxFilters = false; /* Do not use HW filters */
 451              		.loc 1 92 5 is_stmt 1 view .LVU127
  92:Middlewares/Third_Party/CANopenNode_STM32/CO_driver_STM32.c ****     CANmodule->useCANrxFilters = false; /* Do not use HW filters */
 452              		.loc 1 92 26 is_stmt 0 view .LVU128
 453 002e 4861     		str	r0, [r1, #20]
  93:Middlewares/Third_Party/CANopenNode_STM32/CO_driver_STM32.c ****     CANmodule->bufferInhibitFlag = false;
 454              		.loc 1 93 5 is_stmt 1 view .LVU129
  93:Middlewares/Third_Party/CANopenNode_STM32/CO_driver_STM32.c ****     CANmodule->bufferInhibitFlag = false;
 455              		.loc 1 93 32 is_stmt 0 view .LVU130
 456 0030 8861     		str	r0, [r1, #24]
  94:Middlewares/Third_Party/CANopenNode_STM32/CO_driver_STM32.c ****     CANmodule->firstCANtxMessage = true;
 457              		.loc 1 94 5 is_stmt 1 view .LVU131
  94:Middlewares/Third_Party/CANopenNode_STM32/CO_driver_STM32.c ****     CANmodule->firstCANtxMessage = true;
 458              		.loc 1 94 34 is_stmt 0 view .LVU132
 459 0032 C861     		str	r0, [r1, #28]
  95:Middlewares/Third_Party/CANopenNode_STM32/CO_driver_STM32.c ****     CANmodule->CANtxCount = 0U;
 460              		.loc 1 95 5 is_stmt 1 view .LVU133
  95:Middlewares/Third_Party/CANopenNode_STM32/CO_driver_STM32.c ****     CANmodule->CANtxCount = 0U;
 461              		.loc 1 95 34 is_stmt 0 view .LVU134
 462 0034 0126     		movs	r6, #1
 463 0036 0E62     		str	r6, [r1, #32]
  96:Middlewares/Third_Party/CANopenNode_STM32/CO_driver_STM32.c ****     CANmodule->errOld = 0U;
 464              		.loc 1 96 5 is_stmt 1 view .LVU135
  96:Middlewares/Third_Party/CANopenNode_STM32/CO_driver_STM32.c ****     CANmodule->errOld = 0U;
 465              		.loc 1 96 27 is_stmt 0 view .LVU136
 466 0038 8884     		strh	r0, [r1, #36]	@ movhi
  97:Middlewares/Third_Party/CANopenNode_STM32/CO_driver_STM32.c **** 
 467              		.loc 1 97 5 is_stmt 1 view .LVU137
  97:Middlewares/Third_Party/CANopenNode_STM32/CO_driver_STM32.c **** 
 468              		.loc 1 97 23 is_stmt 0 view .LVU138
 469 003a 8862     		str	r0, [r1, #40]
 100:Middlewares/Third_Party/CANopenNode_STM32/CO_driver_STM32.c ****         rxArray[i].ident = 0U;
 470              		.loc 1 100 5 is_stmt 1 view .LVU139
 471              	.LBB23:
ARM GAS  C:\Users\walker\AppData\Local\Temp\ccWw4LAW.s 			page 21


 100:Middlewares/Third_Party/CANopenNode_STM32/CO_driver_STM32.c ****         rxArray[i].ident = 0U;
 472              		.loc 1 100 10 view .LVU140
 473              	.LVL35:
 100:Middlewares/Third_Party/CANopenNode_STM32/CO_driver_STM32.c ****         rxArray[i].ident = 0U;
 474              		.loc 1 100 5 is_stmt 0 view .LVU141
 475 003c 11E0     		b	.L37
 476              	.LVL36:
 477              	.L38:
 101:Middlewares/Third_Party/CANopenNode_STM32/CO_driver_STM32.c ****         rxArray[i].mask = 0xFFFFU;
 478              		.loc 1 101 9 is_stmt 1 discriminator 3 view .LVU142
 101:Middlewares/Third_Party/CANopenNode_STM32/CO_driver_STM32.c ****         rxArray[i].mask = 0xFFFFU;
 479              		.loc 1 101 16 is_stmt 0 discriminator 3 view .LVU143
 480 003e 00EB400C 		add	ip, r0, r0, lsl #1
 481 0042 4FEA8C06 		lsl	r6, ip, #2
 482 0046 02EB8C0C 		add	ip, r2, ip, lsl #2
 101:Middlewares/Third_Party/CANopenNode_STM32/CO_driver_STM32.c ****         rxArray[i].mask = 0xFFFFU;
 483              		.loc 1 101 26 discriminator 3 view .LVU144
 484 004a 0021     		movs	r1, #0
 485 004c 9153     		strh	r1, [r2, r6]	@ movhi
 102:Middlewares/Third_Party/CANopenNode_STM32/CO_driver_STM32.c ****         rxArray[i].object = NULL;
 486              		.loc 1 102 9 is_stmt 1 discriminator 3 view .LVU145
 102:Middlewares/Third_Party/CANopenNode_STM32/CO_driver_STM32.c ****         rxArray[i].object = NULL;
 487              		.loc 1 102 25 is_stmt 0 discriminator 3 view .LVU146
 488 004e 4FF6FF76 		movw	r6, #65535
 489 0052 ACF80260 		strh	r6, [ip, #2]	@ movhi
 103:Middlewares/Third_Party/CANopenNode_STM32/CO_driver_STM32.c ****         rxArray[i].CANrx_callback = NULL;
 490              		.loc 1 103 9 is_stmt 1 discriminator 3 view .LVU147
 103:Middlewares/Third_Party/CANopenNode_STM32/CO_driver_STM32.c ****         rxArray[i].CANrx_callback = NULL;
 491              		.loc 1 103 27 is_stmt 0 discriminator 3 view .LVU148
 492 0056 CCF80410 		str	r1, [ip, #4]
 104:Middlewares/Third_Party/CANopenNode_STM32/CO_driver_STM32.c ****     }
 493              		.loc 1 104 9 is_stmt 1 discriminator 3 view .LVU149
 104:Middlewares/Third_Party/CANopenNode_STM32/CO_driver_STM32.c ****     }
 494              		.loc 1 104 35 is_stmt 0 discriminator 3 view .LVU150
 495 005a CCF80810 		str	r1, [ip, #8]
 100:Middlewares/Third_Party/CANopenNode_STM32/CO_driver_STM32.c ****         rxArray[i].ident = 0U;
 496              		.loc 1 100 39 is_stmt 1 discriminator 3 view .LVU151
 100:Middlewares/Third_Party/CANopenNode_STM32/CO_driver_STM32.c ****         rxArray[i].ident = 0U;
 497              		.loc 1 100 40 is_stmt 0 discriminator 3 view .LVU152
 498 005e 0130     		adds	r0, r0, #1
 499              	.LVL37:
 100:Middlewares/Third_Party/CANopenNode_STM32/CO_driver_STM32.c ****         rxArray[i].ident = 0U;
 500              		.loc 1 100 40 discriminator 3 view .LVU153
 501 0060 80B2     		uxth	r0, r0
 502              	.LVL38:
 503              	.L37:
 100:Middlewares/Third_Party/CANopenNode_STM32/CO_driver_STM32.c ****         rxArray[i].ident = 0U;
 504              		.loc 1 100 27 is_stmt 1 discriminator 1 view .LVU154
 100:Middlewares/Third_Party/CANopenNode_STM32/CO_driver_STM32.c ****         rxArray[i].ident = 0U;
 505              		.loc 1 100 5 is_stmt 0 discriminator 1 view .LVU155
 506 0062 9842     		cmp	r0, r3
 507 0064 EBD3     		bcc	.L38
 508              	.LBE23:
 509              	.LBB24:
 106:Middlewares/Third_Party/CANopenNode_STM32/CO_driver_STM32.c ****         txArray[i].bufferFull = false;
 510              		.loc 1 106 19 view .LVU156
 511 0066 0023     		movs	r3, #0
ARM GAS  C:\Users\walker\AppData\Local\Temp\ccWw4LAW.s 			page 22


 512              	.LVL39:
 106:Middlewares/Third_Party/CANopenNode_STM32/CO_driver_STM32.c ****         txArray[i].bufferFull = false;
 513              		.loc 1 106 19 view .LVU157
 514 0068 07E0     		b	.L39
 515              	.LVL40:
 516              	.L40:
 107:Middlewares/Third_Party/CANopenNode_STM32/CO_driver_STM32.c ****     }
 517              		.loc 1 107 9 is_stmt 1 discriminator 3 view .LVU158
 107:Middlewares/Third_Party/CANopenNode_STM32/CO_driver_STM32.c ****     }
 518              		.loc 1 107 16 is_stmt 0 discriminator 3 view .LVU159
 519 006a 03EB4302 		add	r2, r3, r3, lsl #1
 520 006e 05EBC202 		add	r2, r5, r2, lsl #3
 107:Middlewares/Third_Party/CANopenNode_STM32/CO_driver_STM32.c ****     }
 521              		.loc 1 107 31 discriminator 3 view .LVU160
 522 0072 0021     		movs	r1, #0
 523 0074 1161     		str	r1, [r2, #16]
 106:Middlewares/Third_Party/CANopenNode_STM32/CO_driver_STM32.c ****         txArray[i].bufferFull = false;
 524              		.loc 1 106 39 is_stmt 1 discriminator 3 view .LVU161
 106:Middlewares/Third_Party/CANopenNode_STM32/CO_driver_STM32.c ****         txArray[i].bufferFull = false;
 525              		.loc 1 106 40 is_stmt 0 discriminator 3 view .LVU162
 526 0076 0133     		adds	r3, r3, #1
 527              	.LVL41:
 106:Middlewares/Third_Party/CANopenNode_STM32/CO_driver_STM32.c ****         txArray[i].bufferFull = false;
 528              		.loc 1 106 40 discriminator 3 view .LVU163
 529 0078 9BB2     		uxth	r3, r3
 530              	.LVL42:
 531              	.L39:
 106:Middlewares/Third_Party/CANopenNode_STM32/CO_driver_STM32.c ****         txArray[i].bufferFull = false;
 532              		.loc 1 106 27 is_stmt 1 discriminator 1 view .LVU164
 106:Middlewares/Third_Party/CANopenNode_STM32/CO_driver_STM32.c ****         txArray[i].bufferFull = false;
 533              		.loc 1 106 5 is_stmt 0 discriminator 1 view .LVU165
 534 007a 7345     		cmp	r3, lr
 535 007c F5D3     		bcc	.L40
 536              	.LBE24:
 113:Middlewares/Third_Party/CANopenNode_STM32/CO_driver_STM32.c **** 
 537              		.loc 1 113 5 is_stmt 1 view .LVU166
 113:Middlewares/Third_Party/CANopenNode_STM32/CO_driver_STM32.c **** 
 538              		.loc 1 113 32 is_stmt 0 view .LVU167
 539 007e E368     		ldr	r3, [r4, #12]
 540              	.LVL43:
 113:Middlewares/Third_Party/CANopenNode_STM32/CO_driver_STM32.c **** 
 541              		.loc 1 113 6 view .LVU168
 542 0080 9847     		blx	r3
 543              	.LVL44:
 132:Middlewares/Third_Party/CANopenNode_STM32/CO_driver_STM32.c **** #if defined(CAN)
 544              		.loc 1 132 5 is_stmt 1 view .LVU169
 134:Middlewares/Third_Party/CANopenNode_STM32/CO_driver_STM32.c **** #else
 545              		.loc 1 134 5 view .LVU170
 134:Middlewares/Third_Party/CANopenNode_STM32/CO_driver_STM32.c **** #else
 546              		.loc 1 134 29 is_stmt 0 view .LVU171
 547 0082 0023     		movs	r3, #0
 548 0084 0593     		str	r3, [sp, #20]
 142:Middlewares/Third_Party/CANopenNode_STM32/CO_driver_STM32.c ****     FilterConfig.FilterScale = CAN_FILTERSCALE_32BIT;
 549              		.loc 1 142 5 is_stmt 1 view .LVU172
 142:Middlewares/Third_Party/CANopenNode_STM32/CO_driver_STM32.c ****     FilterConfig.FilterScale = CAN_FILTERSCALE_32BIT;
 550              		.loc 1 142 29 is_stmt 0 view .LVU173
 551 0086 0693     		str	r3, [sp, #24]
ARM GAS  C:\Users\walker\AppData\Local\Temp\ccWw4LAW.s 			page 23


 143:Middlewares/Third_Party/CANopenNode_STM32/CO_driver_STM32.c ****     FilterConfig.FilterIdHigh = 0x0;
 552              		.loc 1 143 5 is_stmt 1 view .LVU174
 143:Middlewares/Third_Party/CANopenNode_STM32/CO_driver_STM32.c ****     FilterConfig.FilterIdHigh = 0x0;
 553              		.loc 1 143 30 is_stmt 0 view .LVU175
 554 0088 0122     		movs	r2, #1
 555 008a 0792     		str	r2, [sp, #28]
 144:Middlewares/Third_Party/CANopenNode_STM32/CO_driver_STM32.c ****     FilterConfig.FilterIdLow = 0x0;
 556              		.loc 1 144 5 is_stmt 1 view .LVU176
 144:Middlewares/Third_Party/CANopenNode_STM32/CO_driver_STM32.c ****     FilterConfig.FilterIdLow = 0x0;
 557              		.loc 1 144 31 is_stmt 0 view .LVU177
 558 008c 0093     		str	r3, [sp]
 145:Middlewares/Third_Party/CANopenNode_STM32/CO_driver_STM32.c ****     FilterConfig.FilterMaskIdHigh = 0x0;
 559              		.loc 1 145 5 is_stmt 1 view .LVU178
 145:Middlewares/Third_Party/CANopenNode_STM32/CO_driver_STM32.c ****     FilterConfig.FilterMaskIdHigh = 0x0;
 560              		.loc 1 145 30 is_stmt 0 view .LVU179
 561 008e 0193     		str	r3, [sp, #4]
 146:Middlewares/Third_Party/CANopenNode_STM32/CO_driver_STM32.c ****     FilterConfig.FilterMaskIdLow = 0x0;
 562              		.loc 1 146 5 is_stmt 1 view .LVU180
 146:Middlewares/Third_Party/CANopenNode_STM32/CO_driver_STM32.c ****     FilterConfig.FilterMaskIdLow = 0x0;
 563              		.loc 1 146 35 is_stmt 0 view .LVU181
 564 0090 0293     		str	r3, [sp, #8]
 147:Middlewares/Third_Party/CANopenNode_STM32/CO_driver_STM32.c ****     FilterConfig.FilterFIFOAssignment = CAN_RX_FIFO0;
 565              		.loc 1 147 5 is_stmt 1 view .LVU182
 147:Middlewares/Third_Party/CANopenNode_STM32/CO_driver_STM32.c ****     FilterConfig.FilterFIFOAssignment = CAN_RX_FIFO0;
 566              		.loc 1 147 34 is_stmt 0 view .LVU183
 567 0092 0393     		str	r3, [sp, #12]
 148:Middlewares/Third_Party/CANopenNode_STM32/CO_driver_STM32.c **** 
 568              		.loc 1 148 5 is_stmt 1 view .LVU184
 148:Middlewares/Third_Party/CANopenNode_STM32/CO_driver_STM32.c **** 
 569              		.loc 1 148 39 is_stmt 0 view .LVU185
 570 0094 0493     		str	r3, [sp, #16]
 150:Middlewares/Third_Party/CANopenNode_STM32/CO_driver_STM32.c ****     FilterConfig.SlaveStartFilterBank = 14;
 571              		.loc 1 150 5 is_stmt 1 view .LVU186
 150:Middlewares/Third_Party/CANopenNode_STM32/CO_driver_STM32.c ****     FilterConfig.SlaveStartFilterBank = 14;
 572              		.loc 1 150 35 is_stmt 0 view .LVU187
 573 0096 0892     		str	r2, [sp, #32]
 151:Middlewares/Third_Party/CANopenNode_STM32/CO_driver_STM32.c **** 
 574              		.loc 1 151 5 is_stmt 1 view .LVU188
 151:Middlewares/Third_Party/CANopenNode_STM32/CO_driver_STM32.c **** 
 575              		.loc 1 151 39 is_stmt 0 view .LVU189
 576 0098 0E23     		movs	r3, #14
 577 009a 0993     		str	r3, [sp, #36]
 153:Middlewares/Third_Party/CANopenNode_STM32/CO_driver_STM32.c ****         return CO_ERROR_ILLEGAL_ARGUMENT;
 578              		.loc 1 153 5 is_stmt 1 view .LVU190
 153:Middlewares/Third_Party/CANopenNode_STM32/CO_driver_STM32.c ****         return CO_ERROR_ILLEGAL_ARGUMENT;
 579              		.loc 1 153 9 is_stmt 0 view .LVU191
 580 009c 6946     		mov	r1, sp
 581 009e A068     		ldr	r0, [r4, #8]
 582 00a0 FFF7FEFF 		bl	HAL_CAN_ConfigFilter
 583              	.LVL45:
 153:Middlewares/Third_Party/CANopenNode_STM32/CO_driver_STM32.c ****         return CO_ERROR_ILLEGAL_ARGUMENT;
 584              		.loc 1 153 8 view .LVU192
 585 00a4 78B9     		cbnz	r0, .L44
 170:Middlewares/Third_Party/CANopenNode_STM32/CO_driver_STM32.c ****                                                                                  | CAN_IT_RX_FIFO1_
 586              		.loc 1 170 5 is_stmt 1 view .LVU193
 170:Middlewares/Third_Party/CANopenNode_STM32/CO_driver_STM32.c ****                                                                                  | CAN_IT_RX_FIFO1_
 587              		.loc 1 170 9 is_stmt 0 view .LVU194
ARM GAS  C:\Users\walker\AppData\Local\Temp\ccWw4LAW.s 			page 24


 588 00a6 1321     		movs	r1, #19
 589 00a8 A068     		ldr	r0, [r4, #8]
 590 00aa FFF7FEFF 		bl	HAL_CAN_ActivateNotification
 591              	.LVL46:
 170:Middlewares/Third_Party/CANopenNode_STM32/CO_driver_STM32.c ****                                                                                  | CAN_IT_RX_FIFO1_
 592              		.loc 1 170 8 view .LVU195
 593 00ae 68B9     		cbnz	r0, .L45
 594              	.LVL47:
 595              	.L36:
 179:Middlewares/Third_Party/CANopenNode_STM32/CO_driver_STM32.c **** 
 596              		.loc 1 179 1 view .LVU196
 597 00b0 0AB0     		add	sp, sp, #40
 598              	.LCFI14:
 599              		.cfi_remember_state
 600              		.cfi_def_cfa_offset 16
 601              		@ sp needed
 602 00b2 70BD     		pop	{r4, r5, r6, pc}
 603              	.LVL48:
 604              	.L41:
 605              	.LCFI15:
 606              		.cfi_restore_state
  77:Middlewares/Third_Party/CANopenNode_STM32/CO_driver_STM32.c ****     }
 607              		.loc 1 77 16 view .LVU197
 608 00b4 4FF0FF30 		mov	r0, #-1
 609              	.LVL49:
  77:Middlewares/Third_Party/CANopenNode_STM32/CO_driver_STM32.c ****     }
 610              		.loc 1 77 16 view .LVU198
 611 00b8 FAE7     		b	.L36
 612              	.LVL50:
 613              	.L42:
  77:Middlewares/Third_Party/CANopenNode_STM32/CO_driver_STM32.c ****     }
 614              		.loc 1 77 16 view .LVU199
 615 00ba 4FF0FF30 		mov	r0, #-1
 616              	.LVL51:
  77:Middlewares/Third_Party/CANopenNode_STM32/CO_driver_STM32.c ****     }
 617              		.loc 1 77 16 view .LVU200
 618 00be F7E7     		b	.L36
 619              	.LVL52:
 620              	.L43:
  77:Middlewares/Third_Party/CANopenNode_STM32/CO_driver_STM32.c ****     }
 621              		.loc 1 77 16 view .LVU201
 622 00c0 4FF0FF30 		mov	r0, #-1
 623              	.LVL53:
  77:Middlewares/Third_Party/CANopenNode_STM32/CO_driver_STM32.c ****     }
 624              		.loc 1 77 16 view .LVU202
 625 00c4 F4E7     		b	.L36
 626              	.LVL54:
 627              	.L44:
 154:Middlewares/Third_Party/CANopenNode_STM32/CO_driver_STM32.c ****     }
 628              		.loc 1 154 16 view .LVU203
 629 00c6 4FF0FF30 		mov	r0, #-1
 630 00ca F1E7     		b	.L36
 631              	.L45:
 174:Middlewares/Third_Party/CANopenNode_STM32/CO_driver_STM32.c ****     }
 632              		.loc 1 174 16 view .LVU204
 633 00cc 4FF0FF30 		mov	r0, #-1
 634 00d0 EEE7     		b	.L36
ARM GAS  C:\Users\walker\AppData\Local\Temp\ccWw4LAW.s 			page 25


 635              	.L48:
 636 00d2 00BF     		.align	2
 637              	.L47:
 638 00d4 00000000 		.word	.LANCHOR2
 639              		.cfi_endproc
 640              	.LFE166:
 642              		.section	.text.CO_CANmodule_disable,"ax",%progbits
 643              		.align	1
 644              		.global	CO_CANmodule_disable
 645              		.syntax unified
 646              		.thumb
 647              		.thumb_func
 649              	CO_CANmodule_disable:
 650              	.LVL55:
 651              	.LFB167:
 183:Middlewares/Third_Party/CANopenNode_STM32/CO_driver_STM32.c ****     if (CANmodule != NULL && CANmodule->CANptr != NULL) {
 652              		.loc 1 183 49 is_stmt 1 view -0
 653              		.cfi_startproc
 654              		@ args = 0, pretend = 0, frame = 0
 655              		@ frame_needed = 0, uses_anonymous_args = 0
 184:Middlewares/Third_Party/CANopenNode_STM32/CO_driver_STM32.c **** #ifdef CO_STM32_FDCAN_Driver
 656              		.loc 1 184 5 view .LVU206
 184:Middlewares/Third_Party/CANopenNode_STM32/CO_driver_STM32.c **** #ifdef CO_STM32_FDCAN_Driver
 657              		.loc 1 184 8 is_stmt 0 view .LVU207
 658 0000 30B1     		cbz	r0, .L52
 183:Middlewares/Third_Party/CANopenNode_STM32/CO_driver_STM32.c ****     if (CANmodule != NULL && CANmodule->CANptr != NULL) {
 659              		.loc 1 183 49 discriminator 1 view .LVU208
 660 0002 08B5     		push	{r3, lr}
 661              	.LCFI16:
 662              		.cfi_def_cfa_offset 8
 663              		.cfi_offset 3, -8
 664              		.cfi_offset 14, -4
 184:Middlewares/Third_Party/CANopenNode_STM32/CO_driver_STM32.c **** #ifdef CO_STM32_FDCAN_Driver
 665              		.loc 1 184 39 discriminator 1 view .LVU209
 666 0004 0368     		ldr	r3, [r0]
 184:Middlewares/Third_Party/CANopenNode_STM32/CO_driver_STM32.c **** #ifdef CO_STM32_FDCAN_Driver
 667              		.loc 1 184 27 discriminator 1 view .LVU210
 668 0006 13B1     		cbz	r3, .L49
 189:Middlewares/Third_Party/CANopenNode_STM32/CO_driver_STM32.c **** #endif
 669              		.loc 1 189 9 is_stmt 1 view .LVU211
 670 0008 9868     		ldr	r0, [r3, #8]
 671              	.LVL56:
 189:Middlewares/Third_Party/CANopenNode_STM32/CO_driver_STM32.c **** #endif
 672              		.loc 1 189 9 is_stmt 0 view .LVU212
 673 000a FFF7FEFF 		bl	HAL_CAN_Stop
 674              	.LVL57:
 675              	.L49:
 192:Middlewares/Third_Party/CANopenNode_STM32/CO_driver_STM32.c **** 
 676              		.loc 1 192 1 view .LVU213
 677 000e 08BD     		pop	{r3, pc}
 678              	.LVL58:
 679              	.L52:
 680              	.LCFI17:
 681              		.cfi_def_cfa_offset 0
 682              		.cfi_restore 3
 683              		.cfi_restore 14
 192:Middlewares/Third_Party/CANopenNode_STM32/CO_driver_STM32.c **** 
ARM GAS  C:\Users\walker\AppData\Local\Temp\ccWw4LAW.s 			page 26


 684              		.loc 1 192 1 view .LVU214
 685 0010 7047     		bx	lr
 686              		.cfi_endproc
 687              	.LFE167:
 689              		.section	.text.CO_CANrxBufferInit,"ax",%progbits
 690              		.align	1
 691              		.global	CO_CANrxBufferInit
 692              		.syntax unified
 693              		.thumb
 694              		.thumb_func
 696              	CO_CANrxBufferInit:
 697              	.LVL59:
 698              	.LFB168:
 197:Middlewares/Third_Party/CANopenNode_STM32/CO_driver_STM32.c ****     CO_ReturnError_t ret = CO_ERROR_NO;
 699              		.loc 1 197 73 is_stmt 1 view -0
 700              		.cfi_startproc
 701              		@ args = 12, pretend = 0, frame = 0
 702              		@ frame_needed = 0, uses_anonymous_args = 0
 197:Middlewares/Third_Party/CANopenNode_STM32/CO_driver_STM32.c ****     CO_ReturnError_t ret = CO_ERROR_NO;
 703              		.loc 1 197 73 is_stmt 0 view .LVU216
 704 0000 30B5     		push	{r4, r5, lr}
 705              	.LCFI18:
 706              		.cfi_def_cfa_offset 12
 707              		.cfi_offset 4, -12
 708              		.cfi_offset 5, -8
 709              		.cfi_offset 14, -4
 710 0002 049C     		ldr	r4, [sp, #16]
 711 0004 059D     		ldr	r5, [sp, #20]
 198:Middlewares/Third_Party/CANopenNode_STM32/CO_driver_STM32.c **** 
 712              		.loc 1 198 5 is_stmt 1 view .LVU217
 713              	.LVL60:
 200:Middlewares/Third_Party/CANopenNode_STM32/CO_driver_STM32.c ****         CO_CANrx_t* buffer = &CANmodule->rxArray[index];
 714              		.loc 1 200 5 view .LVU218
 200:Middlewares/Third_Party/CANopenNode_STM32/CO_driver_STM32.c ****         CO_CANrx_t* buffer = &CANmodule->rxArray[index];
 715              		.loc 1 200 8 is_stmt 0 view .LVU219
 716 0006 20B3     		cbz	r0, .L58
 717 0008 8446     		mov	ip, r0
 200:Middlewares/Third_Party/CANopenNode_STM32/CO_driver_STM32.c ****         CO_CANrx_t* buffer = &CANmodule->rxArray[index];
 718              		.loc 1 200 27 discriminator 1 view .LVU220
 719 000a 2CB3     		cbz	r4, .L59
 200:Middlewares/Third_Party/CANopenNode_STM32/CO_driver_STM32.c ****         CO_CANrx_t* buffer = &CANmodule->rxArray[index];
 720              		.loc 1 200 45 discriminator 2 view .LVU221
 721 000c 3DB3     		cbz	r5, .L60
 200:Middlewares/Third_Party/CANopenNode_STM32/CO_driver_STM32.c ****         CO_CANrx_t* buffer = &CANmodule->rxArray[index];
 722              		.loc 1 200 91 discriminator 3 view .LVU222
 723 000e 0089     		ldrh	r0, [r0, #8]
 724              	.LVL61:
 200:Middlewares/Third_Party/CANopenNode_STM32/CO_driver_STM32.c ****         CO_CANrx_t* buffer = &CANmodule->rxArray[index];
 725              		.loc 1 200 71 discriminator 3 view .LVU223
 726 0010 8842     		cmp	r0, r1
 727 0012 27D9     		bls	.L61
 728              	.LBB25:
 201:Middlewares/Third_Party/CANopenNode_STM32/CO_driver_STM32.c **** 
 729              		.loc 1 201 9 is_stmt 1 view .LVU224
 201:Middlewares/Third_Party/CANopenNode_STM32/CO_driver_STM32.c **** 
 730              		.loc 1 201 40 is_stmt 0 view .LVU225
 731 0014 DCF80400 		ldr	r0, [ip, #4]
ARM GAS  C:\Users\walker\AppData\Local\Temp\ccWw4LAW.s 			page 27


 201:Middlewares/Third_Party/CANopenNode_STM32/CO_driver_STM32.c **** 
 732              		.loc 1 201 49 view .LVU226
 733 0018 01EB4101 		add	r1, r1, r1, lsl #1
 734              	.LVL62:
 201:Middlewares/Third_Party/CANopenNode_STM32/CO_driver_STM32.c **** 
 735              		.loc 1 201 49 view .LVU227
 736 001c 4FEA810E 		lsl	lr, r1, #2
 201:Middlewares/Third_Party/CANopenNode_STM32/CO_driver_STM32.c **** 
 737              		.loc 1 201 21 view .LVU228
 738 0020 00EB8101 		add	r1, r0, r1, lsl #2
 739              	.LVL63:
 204:Middlewares/Third_Party/CANopenNode_STM32/CO_driver_STM32.c ****         buffer->CANrx_callback = CANrx_callback;
 740              		.loc 1 204 9 is_stmt 1 view .LVU229
 204:Middlewares/Third_Party/CANopenNode_STM32/CO_driver_STM32.c ****         buffer->CANrx_callback = CANrx_callback;
 741              		.loc 1 204 24 is_stmt 0 view .LVU230
 742 0024 4C60     		str	r4, [r1, #4]
 205:Middlewares/Third_Party/CANopenNode_STM32/CO_driver_STM32.c **** 
 743              		.loc 1 205 9 is_stmt 1 view .LVU231
 205:Middlewares/Third_Party/CANopenNode_STM32/CO_driver_STM32.c **** 
 744              		.loc 1 205 32 is_stmt 0 view .LVU232
 745 0026 8D60     		str	r5, [r1, #8]
 212:Middlewares/Third_Party/CANopenNode_STM32/CO_driver_STM32.c ****         buffer->mask = (mask & CANID_MASK) | FLAG_RTR;
 746              		.loc 1 212 9 is_stmt 1 view .LVU233
 212:Middlewares/Third_Party/CANopenNode_STM32/CO_driver_STM32.c ****         buffer->mask = (mask & CANID_MASK) | FLAG_RTR;
 747              		.loc 1 212 32 is_stmt 0 view .LVU234
 748 0028 C2F30A02 		ubfx	r2, r2, #0, #11
 749              	.LVL64:
 212:Middlewares/Third_Party/CANopenNode_STM32/CO_driver_STM32.c ****         buffer->mask = (mask & CANID_MASK) | FLAG_RTR;
 750              		.loc 1 212 46 view .LVU235
 751 002c 039C     		ldr	r4, [sp, #12]
 752 002e 74B1     		cbz	r4, .L62
 753 0030 0F4C     		ldr	r4, .L65
 754              	.L57:
 212:Middlewares/Third_Party/CANopenNode_STM32/CO_driver_STM32.c ****         buffer->mask = (mask & CANID_MASK) | FLAG_RTR;
 755              		.loc 1 212 46 discriminator 4 view .LVU236
 756 0032 2243     		orrs	r2, r2, r4
 212:Middlewares/Third_Party/CANopenNode_STM32/CO_driver_STM32.c ****         buffer->mask = (mask & CANID_MASK) | FLAG_RTR;
 757              		.loc 1 212 23 discriminator 4 view .LVU237
 758 0034 20F80E20 		strh	r2, [r0, lr]	@ movhi
 213:Middlewares/Third_Party/CANopenNode_STM32/CO_driver_STM32.c **** 
 759              		.loc 1 213 9 is_stmt 1 discriminator 4 view .LVU238
 213:Middlewares/Third_Party/CANopenNode_STM32/CO_driver_STM32.c **** 
 760              		.loc 1 213 30 is_stmt 0 discriminator 4 view .LVU239
 761 0038 C3F30A03 		ubfx	r3, r3, #0, #11
 762              	.LVL65:
 213:Middlewares/Third_Party/CANopenNode_STM32/CO_driver_STM32.c **** 
 763              		.loc 1 213 44 discriminator 4 view .LVU240
 764 003c 43F40043 		orr	r3, r3, #32768
 213:Middlewares/Third_Party/CANopenNode_STM32/CO_driver_STM32.c **** 
 765              		.loc 1 213 22 discriminator 4 view .LVU241
 766 0040 4B80     		strh	r3, [r1, #2]	@ movhi
 216:Middlewares/Third_Party/CANopenNode_STM32/CO_driver_STM32.c ****             __NOP();
 767              		.loc 1 216 9 is_stmt 1 discriminator 4 view .LVU242
 216:Middlewares/Third_Party/CANopenNode_STM32/CO_driver_STM32.c ****             __NOP();
 768              		.loc 1 216 22 is_stmt 0 discriminator 4 view .LVU243
 769 0042 DCF81830 		ldr	r3, [ip, #24]
 216:Middlewares/Third_Party/CANopenNode_STM32/CO_driver_STM32.c ****             __NOP();
ARM GAS  C:\Users\walker\AppData\Local\Temp\ccWw4LAW.s 			page 28


 770              		.loc 1 216 12 discriminator 4 view .LVU244
 771 0046 83B1     		cbz	r3, .L63
 217:Middlewares/Third_Party/CANopenNode_STM32/CO_driver_STM32.c ****         }
 772              		.loc 1 217 13 is_stmt 1 view .LVU245
 773              		.syntax unified
 774              	@ 217 "Middlewares/Third_Party/CANopenNode_STM32/CO_driver_STM32.c" 1
 775 0048 00BF     		nop
 776              	@ 0 "" 2
 777              		.thumb
 778              		.syntax unified
 779              	.LBE25:
 198:Middlewares/Third_Party/CANopenNode_STM32/CO_driver_STM32.c **** 
 780              		.loc 1 198 22 is_stmt 0 view .LVU246
 781 004a 0020     		movs	r0, #0
 782 004c 0EE0     		b	.L56
 783              	.LVL66:
 784              	.L62:
 785              	.LBB26:
 212:Middlewares/Third_Party/CANopenNode_STM32/CO_driver_STM32.c ****         buffer->mask = (mask & CANID_MASK) | FLAG_RTR;
 786              		.loc 1 212 46 view .LVU247
 787 004e 0024     		movs	r4, #0
 788 0050 EFE7     		b	.L57
 789              	.LVL67:
 790              	.L58:
 212:Middlewares/Third_Party/CANopenNode_STM32/CO_driver_STM32.c ****         buffer->mask = (mask & CANID_MASK) | FLAG_RTR;
 791              		.loc 1 212 46 view .LVU248
 792              	.LBE26:
 220:Middlewares/Third_Party/CANopenNode_STM32/CO_driver_STM32.c ****     }
 793              		.loc 1 220 13 view .LVU249
 794 0052 4FF0FF30 		mov	r0, #-1
 795              	.LVL68:
 220:Middlewares/Third_Party/CANopenNode_STM32/CO_driver_STM32.c ****     }
 796              		.loc 1 220 13 view .LVU250
 797 0056 09E0     		b	.L56
 798              	.LVL69:
 799              	.L59:
 220:Middlewares/Third_Party/CANopenNode_STM32/CO_driver_STM32.c ****     }
 800              		.loc 1 220 13 view .LVU251
 801 0058 4FF0FF30 		mov	r0, #-1
 802              	.LVL70:
 220:Middlewares/Third_Party/CANopenNode_STM32/CO_driver_STM32.c ****     }
 803              		.loc 1 220 13 view .LVU252
 804 005c 06E0     		b	.L56
 805              	.LVL71:
 806              	.L60:
 220:Middlewares/Third_Party/CANopenNode_STM32/CO_driver_STM32.c ****     }
 807              		.loc 1 220 13 view .LVU253
 808 005e 4FF0FF30 		mov	r0, #-1
 809              	.LVL72:
 220:Middlewares/Third_Party/CANopenNode_STM32/CO_driver_STM32.c ****     }
 810              		.loc 1 220 13 view .LVU254
 811 0062 03E0     		b	.L56
 812              	.L61:
 813 0064 4FF0FF30 		mov	r0, #-1
 814 0068 00E0     		b	.L56
 815              	.LVL73:
 816              	.L63:
ARM GAS  C:\Users\walker\AppData\Local\Temp\ccWw4LAW.s 			page 29


 198:Middlewares/Third_Party/CANopenNode_STM32/CO_driver_STM32.c **** 
 817              		.loc 1 198 22 view .LVU255
 818 006a 0020     		movs	r0, #0
 819              	.LVL74:
 820              	.L56:
 223:Middlewares/Third_Party/CANopenNode_STM32/CO_driver_STM32.c **** }
 821              		.loc 1 223 5 is_stmt 1 view .LVU256
 224:Middlewares/Third_Party/CANopenNode_STM32/CO_driver_STM32.c **** 
 822              		.loc 1 224 1 is_stmt 0 view .LVU257
 823 006c 30BD     		pop	{r4, r5, pc}
 824              	.LVL75:
 825              	.L66:
 224:Middlewares/Third_Party/CANopenNode_STM32/CO_driver_STM32.c **** 
 826              		.loc 1 224 1 view .LVU258
 827 006e 00BF     		.align	2
 828              	.L65:
 829 0070 0080FFFF 		.word	-32768
 830              		.cfi_endproc
 831              	.LFE168:
 833              		.section	.text.CO_CANtxBufferInit,"ax",%progbits
 834              		.align	1
 835              		.global	CO_CANtxBufferInit
 836              		.syntax unified
 837              		.thumb
 838              		.thumb_func
 840              	CO_CANtxBufferInit:
 841              	.LVL76:
 842              	.LFB169:
 229:Middlewares/Third_Party/CANopenNode_STM32/CO_driver_STM32.c ****     CO_CANtx_t* buffer = NULL;
 843              		.loc 1 229 37 is_stmt 1 view -0
 844              		.cfi_startproc
 845              		@ args = 8, pretend = 0, frame = 0
 846              		@ frame_needed = 0, uses_anonymous_args = 0
 847              		@ link register save eliminated.
 230:Middlewares/Third_Party/CANopenNode_STM32/CO_driver_STM32.c **** 
 848              		.loc 1 230 5 view .LVU260
 232:Middlewares/Third_Party/CANopenNode_STM32/CO_driver_STM32.c ****         buffer = &CANmodule->txArray[index];
 849              		.loc 1 232 5 view .LVU261
 232:Middlewares/Third_Party/CANopenNode_STM32/CO_driver_STM32.c ****         buffer = &CANmodule->txArray[index];
 850              		.loc 1 232 8 is_stmt 0 view .LVU262
 851 0000 8446     		mov	ip, r0
 852 0002 E8B1     		cbz	r0, .L70
 232:Middlewares/Third_Party/CANopenNode_STM32/CO_driver_STM32.c ****         buffer = &CANmodule->txArray[index];
 853              		.loc 1 232 47 discriminator 1 view .LVU263
 854 0004 008A     		ldrh	r0, [r0, #16]
 855              	.LVL77:
 232:Middlewares/Third_Party/CANopenNode_STM32/CO_driver_STM32.c ****         buffer = &CANmodule->txArray[index];
 856              		.loc 1 232 27 discriminator 1 view .LVU264
 857 0006 8842     		cmp	r0, r1
 858 0008 1BD9     		bls	.L71
 229:Middlewares/Third_Party/CANopenNode_STM32/CO_driver_STM32.c ****     CO_CANtx_t* buffer = NULL;
 859              		.loc 1 229 37 view .LVU265
 860 000a 10B4     		push	{r4}
 861              	.LCFI19:
 862              		.cfi_def_cfa_offset 4
 863              		.cfi_offset 4, -4
 233:Middlewares/Third_Party/CANopenNode_STM32/CO_driver_STM32.c **** 
ARM GAS  C:\Users\walker\AppData\Local\Temp\ccWw4LAW.s 			page 30


 864              		.loc 1 233 9 is_stmt 1 view .LVU266
 233:Middlewares/Third_Party/CANopenNode_STM32/CO_driver_STM32.c **** 
 865              		.loc 1 233 28 is_stmt 0 view .LVU267
 866 000c DCF80C40 		ldr	r4, [ip, #12]
 233:Middlewares/Third_Party/CANopenNode_STM32/CO_driver_STM32.c **** 
 867              		.loc 1 233 37 view .LVU268
 868 0010 01EB4101 		add	r1, r1, r1, lsl #1
 869              	.LVL78:
 233:Middlewares/Third_Party/CANopenNode_STM32/CO_driver_STM32.c **** 
 870              		.loc 1 233 37 view .LVU269
 871 0014 4FEAC10C 		lsl	ip, r1, #3
 872              	.LVL79:
 233:Middlewares/Third_Party/CANopenNode_STM32/CO_driver_STM32.c **** 
 873              		.loc 1 233 16 view .LVU270
 874 0018 04EBC100 		add	r0, r4, r1, lsl #3
 875              	.LVL80:
 236:Middlewares/Third_Party/CANopenNode_STM32/CO_driver_STM32.c ****         buffer->DLC = noOfBytes;
 876              		.loc 1 236 9 is_stmt 1 view .LVU271
 236:Middlewares/Third_Party/CANopenNode_STM32/CO_driver_STM32.c ****         buffer->DLC = noOfBytes;
 877              		.loc 1 236 42 is_stmt 0 view .LVU272
 878 001c C2F30A02 		ubfx	r2, r2, #0, #11
 879              	.LVL81:
 236:Middlewares/Third_Party/CANopenNode_STM32/CO_driver_STM32.c ****         buffer->DLC = noOfBytes;
 880              		.loc 1 236 59 view .LVU273
 881 0020 0BB1     		cbz	r3, .L69
 882 0022 4FF40043 		mov	r3, #32768
 883              	.LVL82:
 884              	.L69:
 236:Middlewares/Third_Party/CANopenNode_STM32/CO_driver_STM32.c ****         buffer->DLC = noOfBytes;
 885              		.loc 1 236 56 discriminator 4 view .LVU274
 886 0026 1A43     		orrs	r2, r2, r3
 236:Middlewares/Third_Party/CANopenNode_STM32/CO_driver_STM32.c ****         buffer->DLC = noOfBytes;
 887              		.loc 1 236 23 discriminator 4 view .LVU275
 888 0028 44F80C20 		str	r2, [r4, ip]
 237:Middlewares/Third_Party/CANopenNode_STM32/CO_driver_STM32.c ****         buffer->bufferFull = false;
 889              		.loc 1 237 9 is_stmt 1 discriminator 4 view .LVU276
 237:Middlewares/Third_Party/CANopenNode_STM32/CO_driver_STM32.c ****         buffer->bufferFull = false;
 890              		.loc 1 237 21 is_stmt 0 discriminator 4 view .LVU277
 891 002c 9DF80430 		ldrb	r3, [sp, #4]	@ zero_extendqisi2
 892 0030 0371     		strb	r3, [r0, #4]
 238:Middlewares/Third_Party/CANopenNode_STM32/CO_driver_STM32.c ****         buffer->syncFlag = syncFlag;
 893              		.loc 1 238 9 is_stmt 1 discriminator 4 view .LVU278
 238:Middlewares/Third_Party/CANopenNode_STM32/CO_driver_STM32.c ****         buffer->syncFlag = syncFlag;
 894              		.loc 1 238 28 is_stmt 0 discriminator 4 view .LVU279
 895 0032 0023     		movs	r3, #0
 896 0034 0361     		str	r3, [r0, #16]
 239:Middlewares/Third_Party/CANopenNode_STM32/CO_driver_STM32.c ****     }
 897              		.loc 1 239 9 is_stmt 1 discriminator 4 view .LVU280
 239:Middlewares/Third_Party/CANopenNode_STM32/CO_driver_STM32.c ****     }
 898              		.loc 1 239 26 is_stmt 0 discriminator 4 view .LVU281
 899 0036 029B     		ldr	r3, [sp, #8]
 900 0038 4361     		str	r3, [r0, #20]
 242:Middlewares/Third_Party/CANopenNode_STM32/CO_driver_STM32.c **** 
 901              		.loc 1 242 1 discriminator 4 view .LVU282
 902 003a 5DF8044B 		ldr	r4, [sp], #4
 903              	.LCFI20:
 904              		.cfi_restore 4
ARM GAS  C:\Users\walker\AppData\Local\Temp\ccWw4LAW.s 			page 31


 905              		.cfi_def_cfa_offset 0
 906              	.LVL83:
 242:Middlewares/Third_Party/CANopenNode_STM32/CO_driver_STM32.c **** 
 907              		.loc 1 242 1 discriminator 4 view .LVU283
 908 003e 7047     		bx	lr
 909              	.LVL84:
 910              	.L70:
 242:Middlewares/Third_Party/CANopenNode_STM32/CO_driver_STM32.c **** 
 911              		.loc 1 242 1 discriminator 4 view .LVU284
 912 0040 7047     		bx	lr
 913              	.LVL85:
 914              	.L71:
 230:Middlewares/Third_Party/CANopenNode_STM32/CO_driver_STM32.c **** 
 915              		.loc 1 230 17 view .LVU285
 916 0042 0020     		movs	r0, #0
 241:Middlewares/Third_Party/CANopenNode_STM32/CO_driver_STM32.c **** }
 917              		.loc 1 241 5 is_stmt 1 view .LVU286
 242:Middlewares/Third_Party/CANopenNode_STM32/CO_driver_STM32.c **** 
 918              		.loc 1 242 1 is_stmt 0 view .LVU287
 919 0044 7047     		bx	lr
 920              		.cfi_endproc
 921              	.LFE169:
 923              		.section	.text.CO_CANsend,"ax",%progbits
 924              		.align	1
 925              		.global	CO_CANsend
 926              		.syntax unified
 927              		.thumb
 928              		.thumb_func
 930              	CO_CANsend:
 931              	.LVL86:
 932              	.LFB171:
 337:Middlewares/Third_Party/CANopenNode_STM32/CO_driver_STM32.c ****     CO_ReturnError_t err = CO_ERROR_NO;
 933              		.loc 1 337 59 is_stmt 1 view -0
 934              		.cfi_startproc
 935              		@ args = 0, pretend = 0, frame = 0
 936              		@ frame_needed = 0, uses_anonymous_args = 0
 337:Middlewares/Third_Party/CANopenNode_STM32/CO_driver_STM32.c ****     CO_ReturnError_t err = CO_ERROR_NO;
 937              		.loc 1 337 59 is_stmt 0 view .LVU289
 938 0000 70B5     		push	{r4, r5, r6, lr}
 939              	.LCFI21:
 940              		.cfi_def_cfa_offset 16
 941              		.cfi_offset 4, -16
 942              		.cfi_offset 5, -12
 943              		.cfi_offset 6, -8
 944              		.cfi_offset 14, -4
 945 0002 0446     		mov	r4, r0
 946 0004 0D46     		mov	r5, r1
 338:Middlewares/Third_Party/CANopenNode_STM32/CO_driver_STM32.c **** 
 947              		.loc 1 338 5 is_stmt 1 view .LVU290
 948              	.LVL87:
 341:Middlewares/Third_Party/CANopenNode_STM32/CO_driver_STM32.c ****         if (!CANmodule->firstCANtxMessage) {
 949              		.loc 1 341 5 view .LVU291
 341:Middlewares/Third_Party/CANopenNode_STM32/CO_driver_STM32.c ****         if (!CANmodule->firstCANtxMessage) {
 950              		.loc 1 341 15 is_stmt 0 view .LVU292
 951 0006 0B69     		ldr	r3, [r1, #16]
 341:Middlewares/Third_Party/CANopenNode_STM32/CO_driver_STM32.c ****         if (!CANmodule->firstCANtxMessage) {
 952              		.loc 1 341 8 view .LVU293
ARM GAS  C:\Users\walker\AppData\Local\Temp\ccWw4LAW.s 			page 32


 953 0008 43B1     		cbz	r3, .L80
 342:Middlewares/Third_Party/CANopenNode_STM32/CO_driver_STM32.c ****             /* don't set error, if bootup message is still on buffers */
 954              		.loc 1 342 9 is_stmt 1 view .LVU294
 342:Middlewares/Third_Party/CANopenNode_STM32/CO_driver_STM32.c ****             /* don't set error, if bootup message is still on buffers */
 955              		.loc 1 342 23 is_stmt 0 view .LVU295
 956 000a 036A     		ldr	r3, [r0, #32]
 342:Middlewares/Third_Party/CANopenNode_STM32/CO_driver_STM32.c ****             /* don't set error, if bootup message is still on buffers */
 957              		.loc 1 342 12 view .LVU296
 958 000c BBB9     		cbnz	r3, .L81
 344:Middlewares/Third_Party/CANopenNode_STM32/CO_driver_STM32.c ****         }
 959              		.loc 1 344 13 is_stmt 1 view .LVU297
 344:Middlewares/Third_Party/CANopenNode_STM32/CO_driver_STM32.c ****         }
 960              		.loc 1 344 39 is_stmt 0 view .LVU298
 961 000e 438A     		ldrh	r3, [r0, #18]
 962 0010 43F00803 		orr	r3, r3, #8
 963 0014 4382     		strh	r3, [r0, #18]	@ movhi
 346:Middlewares/Third_Party/CANopenNode_STM32/CO_driver_STM32.c ****     }
 964              		.loc 1 346 13 view .LVU299
 965 0016 6FF00806 		mvn	r6, #8
 966 001a 00E0     		b	.L77
 967              	.L80:
 338:Middlewares/Third_Party/CANopenNode_STM32/CO_driver_STM32.c **** 
 968              		.loc 1 338 22 view .LVU300
 969 001c 0026     		movs	r6, #0
 970              	.L77:
 971              	.LVL88:
 354:Middlewares/Third_Party/CANopenNode_STM32/CO_driver_STM32.c ****     if (prv_send_can_message(CANmodule, buffer)) {
 972              		.loc 1 354 5 is_stmt 1 view .LVU301
 354:Middlewares/Third_Party/CANopenNode_STM32/CO_driver_STM32.c ****     if (prv_send_can_message(CANmodule, buffer)) {
 973              		.loc 1 354 5 view .LVU302
 974              	.LBB27:
 975              	.LBI27:
 976              		.file 2 "Drivers/CMSIS/Include/cmsis_gcc.h"
   1:Drivers/CMSIS/Include/cmsis_gcc.h **** /**************************************************************************//**
   2:Drivers/CMSIS/Include/cmsis_gcc.h ****  * @file     cmsis_gcc.h
   3:Drivers/CMSIS/Include/cmsis_gcc.h ****  * @brief    CMSIS compiler GCC header file
   4:Drivers/CMSIS/Include/cmsis_gcc.h ****  * @version  V5.0.4
   5:Drivers/CMSIS/Include/cmsis_gcc.h ****  * @date     09. April 2018
   6:Drivers/CMSIS/Include/cmsis_gcc.h ****  ******************************************************************************/
   7:Drivers/CMSIS/Include/cmsis_gcc.h **** /*
   8:Drivers/CMSIS/Include/cmsis_gcc.h ****  * Copyright (c) 2009-2018 Arm Limited. All rights reserved.
   9:Drivers/CMSIS/Include/cmsis_gcc.h ****  *
  10:Drivers/CMSIS/Include/cmsis_gcc.h ****  * SPDX-License-Identifier: Apache-2.0
  11:Drivers/CMSIS/Include/cmsis_gcc.h ****  *
  12:Drivers/CMSIS/Include/cmsis_gcc.h ****  * Licensed under the Apache License, Version 2.0 (the License); you may
  13:Drivers/CMSIS/Include/cmsis_gcc.h ****  * not use this file except in compliance with the License.
  14:Drivers/CMSIS/Include/cmsis_gcc.h ****  * You may obtain a copy of the License at
  15:Drivers/CMSIS/Include/cmsis_gcc.h ****  *
  16:Drivers/CMSIS/Include/cmsis_gcc.h ****  * www.apache.org/licenses/LICENSE-2.0
  17:Drivers/CMSIS/Include/cmsis_gcc.h ****  *
  18:Drivers/CMSIS/Include/cmsis_gcc.h ****  * Unless required by applicable law or agreed to in writing, software
  19:Drivers/CMSIS/Include/cmsis_gcc.h ****  * distributed under the License is distributed on an AS IS BASIS, WITHOUT
  20:Drivers/CMSIS/Include/cmsis_gcc.h ****  * WARRANTIES OR CONDITIONS OF ANY KIND, either express or implied.
  21:Drivers/CMSIS/Include/cmsis_gcc.h ****  * See the License for the specific language governing permissions and
  22:Drivers/CMSIS/Include/cmsis_gcc.h ****  * limitations under the License.
  23:Drivers/CMSIS/Include/cmsis_gcc.h ****  */
  24:Drivers/CMSIS/Include/cmsis_gcc.h **** 
ARM GAS  C:\Users\walker\AppData\Local\Temp\ccWw4LAW.s 			page 33


  25:Drivers/CMSIS/Include/cmsis_gcc.h **** #ifndef __CMSIS_GCC_H
  26:Drivers/CMSIS/Include/cmsis_gcc.h **** #define __CMSIS_GCC_H
  27:Drivers/CMSIS/Include/cmsis_gcc.h **** 
  28:Drivers/CMSIS/Include/cmsis_gcc.h **** /* ignore some GCC warnings */
  29:Drivers/CMSIS/Include/cmsis_gcc.h **** #pragma GCC diagnostic push
  30:Drivers/CMSIS/Include/cmsis_gcc.h **** #pragma GCC diagnostic ignored "-Wsign-conversion"
  31:Drivers/CMSIS/Include/cmsis_gcc.h **** #pragma GCC diagnostic ignored "-Wconversion"
  32:Drivers/CMSIS/Include/cmsis_gcc.h **** #pragma GCC diagnostic ignored "-Wunused-parameter"
  33:Drivers/CMSIS/Include/cmsis_gcc.h **** 
  34:Drivers/CMSIS/Include/cmsis_gcc.h **** /* Fallback for __has_builtin */
  35:Drivers/CMSIS/Include/cmsis_gcc.h **** #ifndef __has_builtin
  36:Drivers/CMSIS/Include/cmsis_gcc.h ****   #define __has_builtin(x) (0)
  37:Drivers/CMSIS/Include/cmsis_gcc.h **** #endif
  38:Drivers/CMSIS/Include/cmsis_gcc.h **** 
  39:Drivers/CMSIS/Include/cmsis_gcc.h **** /* CMSIS compiler specific defines */
  40:Drivers/CMSIS/Include/cmsis_gcc.h **** #ifndef   __ASM
  41:Drivers/CMSIS/Include/cmsis_gcc.h ****   #define __ASM                                  __asm
  42:Drivers/CMSIS/Include/cmsis_gcc.h **** #endif
  43:Drivers/CMSIS/Include/cmsis_gcc.h **** #ifndef   __INLINE
  44:Drivers/CMSIS/Include/cmsis_gcc.h ****   #define __INLINE                               inline
  45:Drivers/CMSIS/Include/cmsis_gcc.h **** #endif
  46:Drivers/CMSIS/Include/cmsis_gcc.h **** #ifndef   __STATIC_INLINE
  47:Drivers/CMSIS/Include/cmsis_gcc.h ****   #define __STATIC_INLINE                        static inline
  48:Drivers/CMSIS/Include/cmsis_gcc.h **** #endif
  49:Drivers/CMSIS/Include/cmsis_gcc.h **** #ifndef   __STATIC_FORCEINLINE                 
  50:Drivers/CMSIS/Include/cmsis_gcc.h ****   #define __STATIC_FORCEINLINE                   __attribute__((always_inline)) static inline
  51:Drivers/CMSIS/Include/cmsis_gcc.h **** #endif                                           
  52:Drivers/CMSIS/Include/cmsis_gcc.h **** #ifndef   __NO_RETURN
  53:Drivers/CMSIS/Include/cmsis_gcc.h ****   #define __NO_RETURN                            __attribute__((__noreturn__))
  54:Drivers/CMSIS/Include/cmsis_gcc.h **** #endif
  55:Drivers/CMSIS/Include/cmsis_gcc.h **** #ifndef   __USED
  56:Drivers/CMSIS/Include/cmsis_gcc.h ****   #define __USED                                 __attribute__((used))
  57:Drivers/CMSIS/Include/cmsis_gcc.h **** #endif
  58:Drivers/CMSIS/Include/cmsis_gcc.h **** #ifndef   __WEAK
  59:Drivers/CMSIS/Include/cmsis_gcc.h ****   #define __WEAK                                 __attribute__((weak))
  60:Drivers/CMSIS/Include/cmsis_gcc.h **** #endif
  61:Drivers/CMSIS/Include/cmsis_gcc.h **** #ifndef   __PACKED
  62:Drivers/CMSIS/Include/cmsis_gcc.h ****   #define __PACKED                               __attribute__((packed, aligned(1)))
  63:Drivers/CMSIS/Include/cmsis_gcc.h **** #endif
  64:Drivers/CMSIS/Include/cmsis_gcc.h **** #ifndef   __PACKED_STRUCT
  65:Drivers/CMSIS/Include/cmsis_gcc.h ****   #define __PACKED_STRUCT                        struct __attribute__((packed, aligned(1)))
  66:Drivers/CMSIS/Include/cmsis_gcc.h **** #endif
  67:Drivers/CMSIS/Include/cmsis_gcc.h **** #ifndef   __PACKED_UNION
  68:Drivers/CMSIS/Include/cmsis_gcc.h ****   #define __PACKED_UNION                         union __attribute__((packed, aligned(1)))
  69:Drivers/CMSIS/Include/cmsis_gcc.h **** #endif
  70:Drivers/CMSIS/Include/cmsis_gcc.h **** #ifndef   __UNALIGNED_UINT32        /* deprecated */
  71:Drivers/CMSIS/Include/cmsis_gcc.h ****   #pragma GCC diagnostic push
  72:Drivers/CMSIS/Include/cmsis_gcc.h ****   #pragma GCC diagnostic ignored "-Wpacked"
  73:Drivers/CMSIS/Include/cmsis_gcc.h ****   #pragma GCC diagnostic ignored "-Wattributes"
  74:Drivers/CMSIS/Include/cmsis_gcc.h ****   struct __attribute__((packed)) T_UINT32 { uint32_t v; };
  75:Drivers/CMSIS/Include/cmsis_gcc.h ****   #pragma GCC diagnostic pop
  76:Drivers/CMSIS/Include/cmsis_gcc.h ****   #define __UNALIGNED_UINT32(x)                  (((struct T_UINT32 *)(x))->v)
  77:Drivers/CMSIS/Include/cmsis_gcc.h **** #endif
  78:Drivers/CMSIS/Include/cmsis_gcc.h **** #ifndef   __UNALIGNED_UINT16_WRITE
  79:Drivers/CMSIS/Include/cmsis_gcc.h ****   #pragma GCC diagnostic push
  80:Drivers/CMSIS/Include/cmsis_gcc.h ****   #pragma GCC diagnostic ignored "-Wpacked"
  81:Drivers/CMSIS/Include/cmsis_gcc.h ****   #pragma GCC diagnostic ignored "-Wattributes"
ARM GAS  C:\Users\walker\AppData\Local\Temp\ccWw4LAW.s 			page 34


  82:Drivers/CMSIS/Include/cmsis_gcc.h ****   __PACKED_STRUCT T_UINT16_WRITE { uint16_t v; };
  83:Drivers/CMSIS/Include/cmsis_gcc.h ****   #pragma GCC diagnostic pop
  84:Drivers/CMSIS/Include/cmsis_gcc.h ****   #define __UNALIGNED_UINT16_WRITE(addr, val)    (void)((((struct T_UINT16_WRITE *)(void *)(addr))-
  85:Drivers/CMSIS/Include/cmsis_gcc.h **** #endif
  86:Drivers/CMSIS/Include/cmsis_gcc.h **** #ifndef   __UNALIGNED_UINT16_READ
  87:Drivers/CMSIS/Include/cmsis_gcc.h ****   #pragma GCC diagnostic push
  88:Drivers/CMSIS/Include/cmsis_gcc.h ****   #pragma GCC diagnostic ignored "-Wpacked"
  89:Drivers/CMSIS/Include/cmsis_gcc.h ****   #pragma GCC diagnostic ignored "-Wattributes"
  90:Drivers/CMSIS/Include/cmsis_gcc.h ****   __PACKED_STRUCT T_UINT16_READ { uint16_t v; };
  91:Drivers/CMSIS/Include/cmsis_gcc.h ****   #pragma GCC diagnostic pop
  92:Drivers/CMSIS/Include/cmsis_gcc.h ****   #define __UNALIGNED_UINT16_READ(addr)          (((const struct T_UINT16_READ *)(const void *)(add
  93:Drivers/CMSIS/Include/cmsis_gcc.h **** #endif
  94:Drivers/CMSIS/Include/cmsis_gcc.h **** #ifndef   __UNALIGNED_UINT32_WRITE
  95:Drivers/CMSIS/Include/cmsis_gcc.h ****   #pragma GCC diagnostic push
  96:Drivers/CMSIS/Include/cmsis_gcc.h ****   #pragma GCC diagnostic ignored "-Wpacked"
  97:Drivers/CMSIS/Include/cmsis_gcc.h ****   #pragma GCC diagnostic ignored "-Wattributes"
  98:Drivers/CMSIS/Include/cmsis_gcc.h ****   __PACKED_STRUCT T_UINT32_WRITE { uint32_t v; };
  99:Drivers/CMSIS/Include/cmsis_gcc.h ****   #pragma GCC diagnostic pop
 100:Drivers/CMSIS/Include/cmsis_gcc.h ****   #define __UNALIGNED_UINT32_WRITE(addr, val)    (void)((((struct T_UINT32_WRITE *)(void *)(addr))-
 101:Drivers/CMSIS/Include/cmsis_gcc.h **** #endif
 102:Drivers/CMSIS/Include/cmsis_gcc.h **** #ifndef   __UNALIGNED_UINT32_READ
 103:Drivers/CMSIS/Include/cmsis_gcc.h ****   #pragma GCC diagnostic push
 104:Drivers/CMSIS/Include/cmsis_gcc.h ****   #pragma GCC diagnostic ignored "-Wpacked"
 105:Drivers/CMSIS/Include/cmsis_gcc.h ****   #pragma GCC diagnostic ignored "-Wattributes"
 106:Drivers/CMSIS/Include/cmsis_gcc.h ****   __PACKED_STRUCT T_UINT32_READ { uint32_t v; };
 107:Drivers/CMSIS/Include/cmsis_gcc.h ****   #pragma GCC diagnostic pop
 108:Drivers/CMSIS/Include/cmsis_gcc.h ****   #define __UNALIGNED_UINT32_READ(addr)          (((const struct T_UINT32_READ *)(const void *)(add
 109:Drivers/CMSIS/Include/cmsis_gcc.h **** #endif
 110:Drivers/CMSIS/Include/cmsis_gcc.h **** #ifndef   __ALIGNED
 111:Drivers/CMSIS/Include/cmsis_gcc.h ****   #define __ALIGNED(x)                           __attribute__((aligned(x)))
 112:Drivers/CMSIS/Include/cmsis_gcc.h **** #endif
 113:Drivers/CMSIS/Include/cmsis_gcc.h **** #ifndef   __RESTRICT
 114:Drivers/CMSIS/Include/cmsis_gcc.h ****   #define __RESTRICT                             __restrict
 115:Drivers/CMSIS/Include/cmsis_gcc.h **** #endif
 116:Drivers/CMSIS/Include/cmsis_gcc.h **** 
 117:Drivers/CMSIS/Include/cmsis_gcc.h **** 
 118:Drivers/CMSIS/Include/cmsis_gcc.h **** /* ###########################  Core Function Access  ########################### */
 119:Drivers/CMSIS/Include/cmsis_gcc.h **** /** \ingroup  CMSIS_Core_FunctionInterface
 120:Drivers/CMSIS/Include/cmsis_gcc.h ****     \defgroup CMSIS_Core_RegAccFunctions CMSIS Core Register Access Functions
 121:Drivers/CMSIS/Include/cmsis_gcc.h ****   @{
 122:Drivers/CMSIS/Include/cmsis_gcc.h ****  */
 123:Drivers/CMSIS/Include/cmsis_gcc.h **** 
 124:Drivers/CMSIS/Include/cmsis_gcc.h **** /**
 125:Drivers/CMSIS/Include/cmsis_gcc.h ****   \brief   Enable IRQ Interrupts
 126:Drivers/CMSIS/Include/cmsis_gcc.h ****   \details Enables IRQ interrupts by clearing the I-bit in the CPSR.
 127:Drivers/CMSIS/Include/cmsis_gcc.h ****            Can only be executed in Privileged modes.
 128:Drivers/CMSIS/Include/cmsis_gcc.h ****  */
 129:Drivers/CMSIS/Include/cmsis_gcc.h **** __STATIC_FORCEINLINE void __enable_irq(void)
 130:Drivers/CMSIS/Include/cmsis_gcc.h **** {
 131:Drivers/CMSIS/Include/cmsis_gcc.h ****   __ASM volatile ("cpsie i" : : : "memory");
 132:Drivers/CMSIS/Include/cmsis_gcc.h **** }
 133:Drivers/CMSIS/Include/cmsis_gcc.h **** 
 134:Drivers/CMSIS/Include/cmsis_gcc.h **** 
 135:Drivers/CMSIS/Include/cmsis_gcc.h **** /**
 136:Drivers/CMSIS/Include/cmsis_gcc.h ****   \brief   Disable IRQ Interrupts
 137:Drivers/CMSIS/Include/cmsis_gcc.h ****   \details Disables IRQ interrupts by setting the I-bit in the CPSR.
 138:Drivers/CMSIS/Include/cmsis_gcc.h ****            Can only be executed in Privileged modes.
ARM GAS  C:\Users\walker\AppData\Local\Temp\ccWw4LAW.s 			page 35


 139:Drivers/CMSIS/Include/cmsis_gcc.h ****  */
 140:Drivers/CMSIS/Include/cmsis_gcc.h **** __STATIC_FORCEINLINE void __disable_irq(void)
 141:Drivers/CMSIS/Include/cmsis_gcc.h **** {
 142:Drivers/CMSIS/Include/cmsis_gcc.h ****   __ASM volatile ("cpsid i" : : : "memory");
 143:Drivers/CMSIS/Include/cmsis_gcc.h **** }
 144:Drivers/CMSIS/Include/cmsis_gcc.h **** 
 145:Drivers/CMSIS/Include/cmsis_gcc.h **** 
 146:Drivers/CMSIS/Include/cmsis_gcc.h **** /**
 147:Drivers/CMSIS/Include/cmsis_gcc.h ****   \brief   Get Control Register
 148:Drivers/CMSIS/Include/cmsis_gcc.h ****   \details Returns the content of the Control Register.
 149:Drivers/CMSIS/Include/cmsis_gcc.h ****   \return               Control Register value
 150:Drivers/CMSIS/Include/cmsis_gcc.h ****  */
 151:Drivers/CMSIS/Include/cmsis_gcc.h **** __STATIC_FORCEINLINE uint32_t __get_CONTROL(void)
 152:Drivers/CMSIS/Include/cmsis_gcc.h **** {
 153:Drivers/CMSIS/Include/cmsis_gcc.h ****   uint32_t result;
 154:Drivers/CMSIS/Include/cmsis_gcc.h **** 
 155:Drivers/CMSIS/Include/cmsis_gcc.h ****   __ASM volatile ("MRS %0, control" : "=r" (result) );
 156:Drivers/CMSIS/Include/cmsis_gcc.h ****   return(result);
 157:Drivers/CMSIS/Include/cmsis_gcc.h **** }
 158:Drivers/CMSIS/Include/cmsis_gcc.h **** 
 159:Drivers/CMSIS/Include/cmsis_gcc.h **** 
 160:Drivers/CMSIS/Include/cmsis_gcc.h **** #if (defined (__ARM_FEATURE_CMSE ) && (__ARM_FEATURE_CMSE == 3))
 161:Drivers/CMSIS/Include/cmsis_gcc.h **** /**
 162:Drivers/CMSIS/Include/cmsis_gcc.h ****   \brief   Get Control Register (non-secure)
 163:Drivers/CMSIS/Include/cmsis_gcc.h ****   \details Returns the content of the non-secure Control Register when in secure mode.
 164:Drivers/CMSIS/Include/cmsis_gcc.h ****   \return               non-secure Control Register value
 165:Drivers/CMSIS/Include/cmsis_gcc.h ****  */
 166:Drivers/CMSIS/Include/cmsis_gcc.h **** __STATIC_FORCEINLINE uint32_t __TZ_get_CONTROL_NS(void)
 167:Drivers/CMSIS/Include/cmsis_gcc.h **** {
 168:Drivers/CMSIS/Include/cmsis_gcc.h ****   uint32_t result;
 169:Drivers/CMSIS/Include/cmsis_gcc.h **** 
 170:Drivers/CMSIS/Include/cmsis_gcc.h ****   __ASM volatile ("MRS %0, control_ns" : "=r" (result) );
 171:Drivers/CMSIS/Include/cmsis_gcc.h ****   return(result);
 172:Drivers/CMSIS/Include/cmsis_gcc.h **** }
 173:Drivers/CMSIS/Include/cmsis_gcc.h **** #endif
 174:Drivers/CMSIS/Include/cmsis_gcc.h **** 
 175:Drivers/CMSIS/Include/cmsis_gcc.h **** 
 176:Drivers/CMSIS/Include/cmsis_gcc.h **** /**
 177:Drivers/CMSIS/Include/cmsis_gcc.h ****   \brief   Set Control Register
 178:Drivers/CMSIS/Include/cmsis_gcc.h ****   \details Writes the given value to the Control Register.
 179:Drivers/CMSIS/Include/cmsis_gcc.h ****   \param [in]    control  Control Register value to set
 180:Drivers/CMSIS/Include/cmsis_gcc.h ****  */
 181:Drivers/CMSIS/Include/cmsis_gcc.h **** __STATIC_FORCEINLINE void __set_CONTROL(uint32_t control)
 182:Drivers/CMSIS/Include/cmsis_gcc.h **** {
 183:Drivers/CMSIS/Include/cmsis_gcc.h ****   __ASM volatile ("MSR control, %0" : : "r" (control) : "memory");
 184:Drivers/CMSIS/Include/cmsis_gcc.h **** }
 185:Drivers/CMSIS/Include/cmsis_gcc.h **** 
 186:Drivers/CMSIS/Include/cmsis_gcc.h **** 
 187:Drivers/CMSIS/Include/cmsis_gcc.h **** #if (defined (__ARM_FEATURE_CMSE ) && (__ARM_FEATURE_CMSE == 3))
 188:Drivers/CMSIS/Include/cmsis_gcc.h **** /**
 189:Drivers/CMSIS/Include/cmsis_gcc.h ****   \brief   Set Control Register (non-secure)
 190:Drivers/CMSIS/Include/cmsis_gcc.h ****   \details Writes the given value to the non-secure Control Register when in secure state.
 191:Drivers/CMSIS/Include/cmsis_gcc.h ****   \param [in]    control  Control Register value to set
 192:Drivers/CMSIS/Include/cmsis_gcc.h ****  */
 193:Drivers/CMSIS/Include/cmsis_gcc.h **** __STATIC_FORCEINLINE void __TZ_set_CONTROL_NS(uint32_t control)
 194:Drivers/CMSIS/Include/cmsis_gcc.h **** {
 195:Drivers/CMSIS/Include/cmsis_gcc.h ****   __ASM volatile ("MSR control_ns, %0" : : "r" (control) : "memory");
ARM GAS  C:\Users\walker\AppData\Local\Temp\ccWw4LAW.s 			page 36


 196:Drivers/CMSIS/Include/cmsis_gcc.h **** }
 197:Drivers/CMSIS/Include/cmsis_gcc.h **** #endif
 198:Drivers/CMSIS/Include/cmsis_gcc.h **** 
 199:Drivers/CMSIS/Include/cmsis_gcc.h **** 
 200:Drivers/CMSIS/Include/cmsis_gcc.h **** /**
 201:Drivers/CMSIS/Include/cmsis_gcc.h ****   \brief   Get IPSR Register
 202:Drivers/CMSIS/Include/cmsis_gcc.h ****   \details Returns the content of the IPSR Register.
 203:Drivers/CMSIS/Include/cmsis_gcc.h ****   \return               IPSR Register value
 204:Drivers/CMSIS/Include/cmsis_gcc.h ****  */
 205:Drivers/CMSIS/Include/cmsis_gcc.h **** __STATIC_FORCEINLINE uint32_t __get_IPSR(void)
 206:Drivers/CMSIS/Include/cmsis_gcc.h **** {
 207:Drivers/CMSIS/Include/cmsis_gcc.h ****   uint32_t result;
 208:Drivers/CMSIS/Include/cmsis_gcc.h **** 
 209:Drivers/CMSIS/Include/cmsis_gcc.h ****   __ASM volatile ("MRS %0, ipsr" : "=r" (result) );
 210:Drivers/CMSIS/Include/cmsis_gcc.h ****   return(result);
 211:Drivers/CMSIS/Include/cmsis_gcc.h **** }
 212:Drivers/CMSIS/Include/cmsis_gcc.h **** 
 213:Drivers/CMSIS/Include/cmsis_gcc.h **** 
 214:Drivers/CMSIS/Include/cmsis_gcc.h **** /**
 215:Drivers/CMSIS/Include/cmsis_gcc.h ****   \brief   Get APSR Register
 216:Drivers/CMSIS/Include/cmsis_gcc.h ****   \details Returns the content of the APSR Register.
 217:Drivers/CMSIS/Include/cmsis_gcc.h ****   \return               APSR Register value
 218:Drivers/CMSIS/Include/cmsis_gcc.h ****  */
 219:Drivers/CMSIS/Include/cmsis_gcc.h **** __STATIC_FORCEINLINE uint32_t __get_APSR(void)
 220:Drivers/CMSIS/Include/cmsis_gcc.h **** {
 221:Drivers/CMSIS/Include/cmsis_gcc.h ****   uint32_t result;
 222:Drivers/CMSIS/Include/cmsis_gcc.h **** 
 223:Drivers/CMSIS/Include/cmsis_gcc.h ****   __ASM volatile ("MRS %0, apsr" : "=r" (result) );
 224:Drivers/CMSIS/Include/cmsis_gcc.h ****   return(result);
 225:Drivers/CMSIS/Include/cmsis_gcc.h **** }
 226:Drivers/CMSIS/Include/cmsis_gcc.h **** 
 227:Drivers/CMSIS/Include/cmsis_gcc.h **** 
 228:Drivers/CMSIS/Include/cmsis_gcc.h **** /**
 229:Drivers/CMSIS/Include/cmsis_gcc.h ****   \brief   Get xPSR Register
 230:Drivers/CMSIS/Include/cmsis_gcc.h ****   \details Returns the content of the xPSR Register.
 231:Drivers/CMSIS/Include/cmsis_gcc.h ****   \return               xPSR Register value
 232:Drivers/CMSIS/Include/cmsis_gcc.h ****  */
 233:Drivers/CMSIS/Include/cmsis_gcc.h **** __STATIC_FORCEINLINE uint32_t __get_xPSR(void)
 234:Drivers/CMSIS/Include/cmsis_gcc.h **** {
 235:Drivers/CMSIS/Include/cmsis_gcc.h ****   uint32_t result;
 236:Drivers/CMSIS/Include/cmsis_gcc.h **** 
 237:Drivers/CMSIS/Include/cmsis_gcc.h ****   __ASM volatile ("MRS %0, xpsr" : "=r" (result) );
 238:Drivers/CMSIS/Include/cmsis_gcc.h ****   return(result);
 239:Drivers/CMSIS/Include/cmsis_gcc.h **** }
 240:Drivers/CMSIS/Include/cmsis_gcc.h **** 
 241:Drivers/CMSIS/Include/cmsis_gcc.h **** 
 242:Drivers/CMSIS/Include/cmsis_gcc.h **** /**
 243:Drivers/CMSIS/Include/cmsis_gcc.h ****   \brief   Get Process Stack Pointer
 244:Drivers/CMSIS/Include/cmsis_gcc.h ****   \details Returns the current value of the Process Stack Pointer (PSP).
 245:Drivers/CMSIS/Include/cmsis_gcc.h ****   \return               PSP Register value
 246:Drivers/CMSIS/Include/cmsis_gcc.h ****  */
 247:Drivers/CMSIS/Include/cmsis_gcc.h **** __STATIC_FORCEINLINE uint32_t __get_PSP(void)
 248:Drivers/CMSIS/Include/cmsis_gcc.h **** {
 249:Drivers/CMSIS/Include/cmsis_gcc.h ****   uint32_t result;
 250:Drivers/CMSIS/Include/cmsis_gcc.h **** 
 251:Drivers/CMSIS/Include/cmsis_gcc.h ****   __ASM volatile ("MRS %0, psp"  : "=r" (result) );
 252:Drivers/CMSIS/Include/cmsis_gcc.h ****   return(result);
ARM GAS  C:\Users\walker\AppData\Local\Temp\ccWw4LAW.s 			page 37


 253:Drivers/CMSIS/Include/cmsis_gcc.h **** }
 254:Drivers/CMSIS/Include/cmsis_gcc.h **** 
 255:Drivers/CMSIS/Include/cmsis_gcc.h **** 
 256:Drivers/CMSIS/Include/cmsis_gcc.h **** #if (defined (__ARM_FEATURE_CMSE ) && (__ARM_FEATURE_CMSE == 3))
 257:Drivers/CMSIS/Include/cmsis_gcc.h **** /**
 258:Drivers/CMSIS/Include/cmsis_gcc.h ****   \brief   Get Process Stack Pointer (non-secure)
 259:Drivers/CMSIS/Include/cmsis_gcc.h ****   \details Returns the current value of the non-secure Process Stack Pointer (PSP) when in secure s
 260:Drivers/CMSIS/Include/cmsis_gcc.h ****   \return               PSP Register value
 261:Drivers/CMSIS/Include/cmsis_gcc.h ****  */
 262:Drivers/CMSIS/Include/cmsis_gcc.h **** __STATIC_FORCEINLINE uint32_t __TZ_get_PSP_NS(void)
 263:Drivers/CMSIS/Include/cmsis_gcc.h **** {
 264:Drivers/CMSIS/Include/cmsis_gcc.h ****   uint32_t result;
 265:Drivers/CMSIS/Include/cmsis_gcc.h **** 
 266:Drivers/CMSIS/Include/cmsis_gcc.h ****   __ASM volatile ("MRS %0, psp_ns"  : "=r" (result) );
 267:Drivers/CMSIS/Include/cmsis_gcc.h ****   return(result);
 268:Drivers/CMSIS/Include/cmsis_gcc.h **** }
 269:Drivers/CMSIS/Include/cmsis_gcc.h **** #endif
 270:Drivers/CMSIS/Include/cmsis_gcc.h **** 
 271:Drivers/CMSIS/Include/cmsis_gcc.h **** 
 272:Drivers/CMSIS/Include/cmsis_gcc.h **** /**
 273:Drivers/CMSIS/Include/cmsis_gcc.h ****   \brief   Set Process Stack Pointer
 274:Drivers/CMSIS/Include/cmsis_gcc.h ****   \details Assigns the given value to the Process Stack Pointer (PSP).
 275:Drivers/CMSIS/Include/cmsis_gcc.h ****   \param [in]    topOfProcStack  Process Stack Pointer value to set
 276:Drivers/CMSIS/Include/cmsis_gcc.h ****  */
 277:Drivers/CMSIS/Include/cmsis_gcc.h **** __STATIC_FORCEINLINE void __set_PSP(uint32_t topOfProcStack)
 278:Drivers/CMSIS/Include/cmsis_gcc.h **** {
 279:Drivers/CMSIS/Include/cmsis_gcc.h ****   __ASM volatile ("MSR psp, %0" : : "r" (topOfProcStack) : );
 280:Drivers/CMSIS/Include/cmsis_gcc.h **** }
 281:Drivers/CMSIS/Include/cmsis_gcc.h **** 
 282:Drivers/CMSIS/Include/cmsis_gcc.h **** 
 283:Drivers/CMSIS/Include/cmsis_gcc.h **** #if (defined (__ARM_FEATURE_CMSE ) && (__ARM_FEATURE_CMSE == 3))
 284:Drivers/CMSIS/Include/cmsis_gcc.h **** /**
 285:Drivers/CMSIS/Include/cmsis_gcc.h ****   \brief   Set Process Stack Pointer (non-secure)
 286:Drivers/CMSIS/Include/cmsis_gcc.h ****   \details Assigns the given value to the non-secure Process Stack Pointer (PSP) when in secure sta
 287:Drivers/CMSIS/Include/cmsis_gcc.h ****   \param [in]    topOfProcStack  Process Stack Pointer value to set
 288:Drivers/CMSIS/Include/cmsis_gcc.h ****  */
 289:Drivers/CMSIS/Include/cmsis_gcc.h **** __STATIC_FORCEINLINE void __TZ_set_PSP_NS(uint32_t topOfProcStack)
 290:Drivers/CMSIS/Include/cmsis_gcc.h **** {
 291:Drivers/CMSIS/Include/cmsis_gcc.h ****   __ASM volatile ("MSR psp_ns, %0" : : "r" (topOfProcStack) : );
 292:Drivers/CMSIS/Include/cmsis_gcc.h **** }
 293:Drivers/CMSIS/Include/cmsis_gcc.h **** #endif
 294:Drivers/CMSIS/Include/cmsis_gcc.h **** 
 295:Drivers/CMSIS/Include/cmsis_gcc.h **** 
 296:Drivers/CMSIS/Include/cmsis_gcc.h **** /**
 297:Drivers/CMSIS/Include/cmsis_gcc.h ****   \brief   Get Main Stack Pointer
 298:Drivers/CMSIS/Include/cmsis_gcc.h ****   \details Returns the current value of the Main Stack Pointer (MSP).
 299:Drivers/CMSIS/Include/cmsis_gcc.h ****   \return               MSP Register value
 300:Drivers/CMSIS/Include/cmsis_gcc.h ****  */
 301:Drivers/CMSIS/Include/cmsis_gcc.h **** __STATIC_FORCEINLINE uint32_t __get_MSP(void)
 302:Drivers/CMSIS/Include/cmsis_gcc.h **** {
 303:Drivers/CMSIS/Include/cmsis_gcc.h ****   uint32_t result;
 304:Drivers/CMSIS/Include/cmsis_gcc.h **** 
 305:Drivers/CMSIS/Include/cmsis_gcc.h ****   __ASM volatile ("MRS %0, msp" : "=r" (result) );
 306:Drivers/CMSIS/Include/cmsis_gcc.h ****   return(result);
 307:Drivers/CMSIS/Include/cmsis_gcc.h **** }
 308:Drivers/CMSIS/Include/cmsis_gcc.h **** 
 309:Drivers/CMSIS/Include/cmsis_gcc.h **** 
ARM GAS  C:\Users\walker\AppData\Local\Temp\ccWw4LAW.s 			page 38


 310:Drivers/CMSIS/Include/cmsis_gcc.h **** #if (defined (__ARM_FEATURE_CMSE ) && (__ARM_FEATURE_CMSE == 3))
 311:Drivers/CMSIS/Include/cmsis_gcc.h **** /**
 312:Drivers/CMSIS/Include/cmsis_gcc.h ****   \brief   Get Main Stack Pointer (non-secure)
 313:Drivers/CMSIS/Include/cmsis_gcc.h ****   \details Returns the current value of the non-secure Main Stack Pointer (MSP) when in secure stat
 314:Drivers/CMSIS/Include/cmsis_gcc.h ****   \return               MSP Register value
 315:Drivers/CMSIS/Include/cmsis_gcc.h ****  */
 316:Drivers/CMSIS/Include/cmsis_gcc.h **** __STATIC_FORCEINLINE uint32_t __TZ_get_MSP_NS(void)
 317:Drivers/CMSIS/Include/cmsis_gcc.h **** {
 318:Drivers/CMSIS/Include/cmsis_gcc.h ****   uint32_t result;
 319:Drivers/CMSIS/Include/cmsis_gcc.h **** 
 320:Drivers/CMSIS/Include/cmsis_gcc.h ****   __ASM volatile ("MRS %0, msp_ns" : "=r" (result) );
 321:Drivers/CMSIS/Include/cmsis_gcc.h ****   return(result);
 322:Drivers/CMSIS/Include/cmsis_gcc.h **** }
 323:Drivers/CMSIS/Include/cmsis_gcc.h **** #endif
 324:Drivers/CMSIS/Include/cmsis_gcc.h **** 
 325:Drivers/CMSIS/Include/cmsis_gcc.h **** 
 326:Drivers/CMSIS/Include/cmsis_gcc.h **** /**
 327:Drivers/CMSIS/Include/cmsis_gcc.h ****   \brief   Set Main Stack Pointer
 328:Drivers/CMSIS/Include/cmsis_gcc.h ****   \details Assigns the given value to the Main Stack Pointer (MSP).
 329:Drivers/CMSIS/Include/cmsis_gcc.h ****   \param [in]    topOfMainStack  Main Stack Pointer value to set
 330:Drivers/CMSIS/Include/cmsis_gcc.h ****  */
 331:Drivers/CMSIS/Include/cmsis_gcc.h **** __STATIC_FORCEINLINE void __set_MSP(uint32_t topOfMainStack)
 332:Drivers/CMSIS/Include/cmsis_gcc.h **** {
 333:Drivers/CMSIS/Include/cmsis_gcc.h ****   __ASM volatile ("MSR msp, %0" : : "r" (topOfMainStack) : );
 334:Drivers/CMSIS/Include/cmsis_gcc.h **** }
 335:Drivers/CMSIS/Include/cmsis_gcc.h **** 
 336:Drivers/CMSIS/Include/cmsis_gcc.h **** 
 337:Drivers/CMSIS/Include/cmsis_gcc.h **** #if (defined (__ARM_FEATURE_CMSE ) && (__ARM_FEATURE_CMSE == 3))
 338:Drivers/CMSIS/Include/cmsis_gcc.h **** /**
 339:Drivers/CMSIS/Include/cmsis_gcc.h ****   \brief   Set Main Stack Pointer (non-secure)
 340:Drivers/CMSIS/Include/cmsis_gcc.h ****   \details Assigns the given value to the non-secure Main Stack Pointer (MSP) when in secure state.
 341:Drivers/CMSIS/Include/cmsis_gcc.h ****   \param [in]    topOfMainStack  Main Stack Pointer value to set
 342:Drivers/CMSIS/Include/cmsis_gcc.h ****  */
 343:Drivers/CMSIS/Include/cmsis_gcc.h **** __STATIC_FORCEINLINE void __TZ_set_MSP_NS(uint32_t topOfMainStack)
 344:Drivers/CMSIS/Include/cmsis_gcc.h **** {
 345:Drivers/CMSIS/Include/cmsis_gcc.h ****   __ASM volatile ("MSR msp_ns, %0" : : "r" (topOfMainStack) : );
 346:Drivers/CMSIS/Include/cmsis_gcc.h **** }
 347:Drivers/CMSIS/Include/cmsis_gcc.h **** #endif
 348:Drivers/CMSIS/Include/cmsis_gcc.h **** 
 349:Drivers/CMSIS/Include/cmsis_gcc.h **** 
 350:Drivers/CMSIS/Include/cmsis_gcc.h **** #if (defined (__ARM_FEATURE_CMSE ) && (__ARM_FEATURE_CMSE == 3))
 351:Drivers/CMSIS/Include/cmsis_gcc.h **** /**
 352:Drivers/CMSIS/Include/cmsis_gcc.h ****   \brief   Get Stack Pointer (non-secure)
 353:Drivers/CMSIS/Include/cmsis_gcc.h ****   \details Returns the current value of the non-secure Stack Pointer (SP) when in secure state.
 354:Drivers/CMSIS/Include/cmsis_gcc.h ****   \return               SP Register value
 355:Drivers/CMSIS/Include/cmsis_gcc.h ****  */
 356:Drivers/CMSIS/Include/cmsis_gcc.h **** __STATIC_FORCEINLINE uint32_t __TZ_get_SP_NS(void)
 357:Drivers/CMSIS/Include/cmsis_gcc.h **** {
 358:Drivers/CMSIS/Include/cmsis_gcc.h ****   uint32_t result;
 359:Drivers/CMSIS/Include/cmsis_gcc.h **** 
 360:Drivers/CMSIS/Include/cmsis_gcc.h ****   __ASM volatile ("MRS %0, sp_ns" : "=r" (result) );
 361:Drivers/CMSIS/Include/cmsis_gcc.h ****   return(result);
 362:Drivers/CMSIS/Include/cmsis_gcc.h **** }
 363:Drivers/CMSIS/Include/cmsis_gcc.h **** 
 364:Drivers/CMSIS/Include/cmsis_gcc.h **** 
 365:Drivers/CMSIS/Include/cmsis_gcc.h **** /**
 366:Drivers/CMSIS/Include/cmsis_gcc.h ****   \brief   Set Stack Pointer (non-secure)
ARM GAS  C:\Users\walker\AppData\Local\Temp\ccWw4LAW.s 			page 39


 367:Drivers/CMSIS/Include/cmsis_gcc.h ****   \details Assigns the given value to the non-secure Stack Pointer (SP) when in secure state.
 368:Drivers/CMSIS/Include/cmsis_gcc.h ****   \param [in]    topOfStack  Stack Pointer value to set
 369:Drivers/CMSIS/Include/cmsis_gcc.h ****  */
 370:Drivers/CMSIS/Include/cmsis_gcc.h **** __STATIC_FORCEINLINE void __TZ_set_SP_NS(uint32_t topOfStack)
 371:Drivers/CMSIS/Include/cmsis_gcc.h **** {
 372:Drivers/CMSIS/Include/cmsis_gcc.h ****   __ASM volatile ("MSR sp_ns, %0" : : "r" (topOfStack) : );
 373:Drivers/CMSIS/Include/cmsis_gcc.h **** }
 374:Drivers/CMSIS/Include/cmsis_gcc.h **** #endif
 375:Drivers/CMSIS/Include/cmsis_gcc.h **** 
 376:Drivers/CMSIS/Include/cmsis_gcc.h **** 
 377:Drivers/CMSIS/Include/cmsis_gcc.h **** /**
 378:Drivers/CMSIS/Include/cmsis_gcc.h ****   \brief   Get Priority Mask
 379:Drivers/CMSIS/Include/cmsis_gcc.h ****   \details Returns the current state of the priority mask bit from the Priority Mask Register.
 380:Drivers/CMSIS/Include/cmsis_gcc.h ****   \return               Priority Mask value
 381:Drivers/CMSIS/Include/cmsis_gcc.h ****  */
 382:Drivers/CMSIS/Include/cmsis_gcc.h **** __STATIC_FORCEINLINE uint32_t __get_PRIMASK(void)
 977              		.loc 2 382 31 view .LVU303
 978              	.LBB28:
 383:Drivers/CMSIS/Include/cmsis_gcc.h **** {
 384:Drivers/CMSIS/Include/cmsis_gcc.h ****   uint32_t result;
 979              		.loc 2 384 3 view .LVU304
 385:Drivers/CMSIS/Include/cmsis_gcc.h **** 
 386:Drivers/CMSIS/Include/cmsis_gcc.h ****   __ASM volatile ("MRS %0, primask" : "=r" (result) :: "memory");
 980              		.loc 2 386 3 view .LVU305
 981              		.syntax unified
 982              	@ 386 "Drivers/CMSIS/Include/cmsis_gcc.h" 1
 983 001e EFF31083 		MRS r3, primask
 984              	@ 0 "" 2
 985              	.LVL89:
 387:Drivers/CMSIS/Include/cmsis_gcc.h ****   return(result);
 986              		.loc 2 387 3 view .LVU306
 987              		.loc 2 387 3 is_stmt 0 view .LVU307
 988              		.thumb
 989              		.syntax unified
 990              	.LBE28:
 991              	.LBE27:
 354:Middlewares/Third_Party/CANopenNode_STM32/CO_driver_STM32.c ****     if (prv_send_can_message(CANmodule, buffer)) {
 992              		.loc 1 354 5 view .LVU308
 993 0022 E362     		str	r3, [r4, #44]
 354:Middlewares/Third_Party/CANopenNode_STM32/CO_driver_STM32.c ****     if (prv_send_can_message(CANmodule, buffer)) {
 994              		.loc 1 354 5 is_stmt 1 view .LVU309
 995              	.LBB29:
 996              	.LBI29:
 140:Drivers/CMSIS/Include/cmsis_gcc.h **** {
 997              		.loc 2 140 27 view .LVU310
 998              	.LBB30:
 142:Drivers/CMSIS/Include/cmsis_gcc.h **** }
 999              		.loc 2 142 3 view .LVU311
 1000              		.syntax unified
 1001              	@ 142 "Drivers/CMSIS/Include/cmsis_gcc.h" 1
 1002 0024 72B6     		cpsid i
 1003              	@ 0 "" 2
 1004              		.thumb
 1005              		.syntax unified
 1006              	.LBE30:
 1007              	.LBE29:
 354:Middlewares/Third_Party/CANopenNode_STM32/CO_driver_STM32.c ****     if (prv_send_can_message(CANmodule, buffer)) {
ARM GAS  C:\Users\walker\AppData\Local\Temp\ccWw4LAW.s 			page 40


 1008              		.loc 1 354 5 view .LVU312
 355:Middlewares/Third_Party/CANopenNode_STM32/CO_driver_STM32.c ****         CANmodule->bufferInhibitFlag = buffer->syncFlag;
 1009              		.loc 1 355 5 view .LVU313
 355:Middlewares/Third_Party/CANopenNode_STM32/CO_driver_STM32.c ****         CANmodule->bufferInhibitFlag = buffer->syncFlag;
 1010              		.loc 1 355 9 is_stmt 0 view .LVU314
 1011 0026 2946     		mov	r1, r5
 1012              	.LVL90:
 355:Middlewares/Third_Party/CANopenNode_STM32/CO_driver_STM32.c ****         CANmodule->bufferInhibitFlag = buffer->syncFlag;
 1013              		.loc 1 355 9 view .LVU315
 1014 0028 2046     		mov	r0, r4
 1015              	.LVL91:
 355:Middlewares/Third_Party/CANopenNode_STM32/CO_driver_STM32.c ****         CANmodule->bufferInhibitFlag = buffer->syncFlag;
 1016              		.loc 1 355 9 view .LVU316
 1017 002a FFF7FEFF 		bl	prv_send_can_message
 1018              	.LVL92:
 355:Middlewares/Third_Party/CANopenNode_STM32/CO_driver_STM32.c ****         CANmodule->bufferInhibitFlag = buffer->syncFlag;
 1019              		.loc 1 355 8 view .LVU317
 1020 002e 48B1     		cbz	r0, .L78
 356:Middlewares/Third_Party/CANopenNode_STM32/CO_driver_STM32.c ****     } else {
 1021              		.loc 1 356 9 is_stmt 1 view .LVU318
 356:Middlewares/Third_Party/CANopenNode_STM32/CO_driver_STM32.c ****     } else {
 1022              		.loc 1 356 46 is_stmt 0 view .LVU319
 1023 0030 6B69     		ldr	r3, [r5, #20]
 356:Middlewares/Third_Party/CANopenNode_STM32/CO_driver_STM32.c ****     } else {
 1024              		.loc 1 356 38 view .LVU320
 1025 0032 E361     		str	r3, [r4, #28]
 1026              	.L79:
 361:Middlewares/Third_Party/CANopenNode_STM32/CO_driver_STM32.c **** 
 1027              		.loc 1 361 5 is_stmt 1 view .LVU321
 1028 0034 E36A     		ldr	r3, [r4, #44]
 1029              	.LVL93:
 1030              	.LBB31:
 1031              	.LBI31:
 388:Drivers/CMSIS/Include/cmsis_gcc.h **** }
 389:Drivers/CMSIS/Include/cmsis_gcc.h **** 
 390:Drivers/CMSIS/Include/cmsis_gcc.h **** 
 391:Drivers/CMSIS/Include/cmsis_gcc.h **** #if (defined (__ARM_FEATURE_CMSE ) && (__ARM_FEATURE_CMSE == 3))
 392:Drivers/CMSIS/Include/cmsis_gcc.h **** /**
 393:Drivers/CMSIS/Include/cmsis_gcc.h ****   \brief   Get Priority Mask (non-secure)
 394:Drivers/CMSIS/Include/cmsis_gcc.h ****   \details Returns the current state of the non-secure priority mask bit from the Priority Mask Reg
 395:Drivers/CMSIS/Include/cmsis_gcc.h ****   \return               Priority Mask value
 396:Drivers/CMSIS/Include/cmsis_gcc.h ****  */
 397:Drivers/CMSIS/Include/cmsis_gcc.h **** __STATIC_FORCEINLINE uint32_t __TZ_get_PRIMASK_NS(void)
 398:Drivers/CMSIS/Include/cmsis_gcc.h **** {
 399:Drivers/CMSIS/Include/cmsis_gcc.h ****   uint32_t result;
 400:Drivers/CMSIS/Include/cmsis_gcc.h **** 
 401:Drivers/CMSIS/Include/cmsis_gcc.h ****   __ASM volatile ("MRS %0, primask_ns" : "=r" (result) :: "memory");
 402:Drivers/CMSIS/Include/cmsis_gcc.h ****   return(result);
 403:Drivers/CMSIS/Include/cmsis_gcc.h **** }
 404:Drivers/CMSIS/Include/cmsis_gcc.h **** #endif
 405:Drivers/CMSIS/Include/cmsis_gcc.h **** 
 406:Drivers/CMSIS/Include/cmsis_gcc.h **** 
 407:Drivers/CMSIS/Include/cmsis_gcc.h **** /**
 408:Drivers/CMSIS/Include/cmsis_gcc.h ****   \brief   Set Priority Mask
 409:Drivers/CMSIS/Include/cmsis_gcc.h ****   \details Assigns the given value to the Priority Mask Register.
 410:Drivers/CMSIS/Include/cmsis_gcc.h ****   \param [in]    priMask  Priority Mask
 411:Drivers/CMSIS/Include/cmsis_gcc.h ****  */
ARM GAS  C:\Users\walker\AppData\Local\Temp\ccWw4LAW.s 			page 41


 412:Drivers/CMSIS/Include/cmsis_gcc.h **** __STATIC_FORCEINLINE void __set_PRIMASK(uint32_t priMask)
 1032              		.loc 2 412 27 view .LVU322
 1033              	.LBB32:
 413:Drivers/CMSIS/Include/cmsis_gcc.h **** {
 414:Drivers/CMSIS/Include/cmsis_gcc.h ****   __ASM volatile ("MSR primask, %0" : : "r" (priMask) : "memory");
 1034              		.loc 2 414 3 view .LVU323
 1035              		.syntax unified
 1036              	@ 414 "Drivers/CMSIS/Include/cmsis_gcc.h" 1
 1037 0036 83F31088 		MSR primask, r3
 1038              	@ 0 "" 2
 1039              	.LVL94:
 1040              		.loc 2 414 3 is_stmt 0 view .LVU324
 1041              		.thumb
 1042              		.syntax unified
 1043              	.LBE32:
 1044              	.LBE31:
 363:Middlewares/Third_Party/CANopenNode_STM32/CO_driver_STM32.c **** }
 1045              		.loc 1 363 5 is_stmt 1 view .LVU325
 364:Middlewares/Third_Party/CANopenNode_STM32/CO_driver_STM32.c **** 
 1046              		.loc 1 364 1 is_stmt 0 view .LVU326
 1047 003a 3046     		mov	r0, r6
 1048 003c 70BD     		pop	{r4, r5, r6, pc}
 1049              	.LVL95:
 1050              	.L81:
 346:Middlewares/Third_Party/CANopenNode_STM32/CO_driver_STM32.c ****     }
 1051              		.loc 1 346 13 view .LVU327
 1052 003e 6FF00806 		mvn	r6, #8
 1053 0042 ECE7     		b	.L77
 1054              	.LVL96:
 1055              	.L78:
 358:Middlewares/Third_Party/CANopenNode_STM32/CO_driver_STM32.c ****         CANmodule->CANtxCount++;
 1056              		.loc 1 358 9 is_stmt 1 view .LVU328
 358:Middlewares/Third_Party/CANopenNode_STM32/CO_driver_STM32.c ****         CANmodule->CANtxCount++;
 1057              		.loc 1 358 28 is_stmt 0 view .LVU329
 1058 0044 0123     		movs	r3, #1
 1059 0046 2B61     		str	r3, [r5, #16]
 359:Middlewares/Third_Party/CANopenNode_STM32/CO_driver_STM32.c ****     }
 1060              		.loc 1 359 9 is_stmt 1 view .LVU330
 359:Middlewares/Third_Party/CANopenNode_STM32/CO_driver_STM32.c ****     }
 1061              		.loc 1 359 18 is_stmt 0 view .LVU331
 1062 0048 A38C     		ldrh	r3, [r4, #36]
 1063 004a 9BB2     		uxth	r3, r3
 359:Middlewares/Third_Party/CANopenNode_STM32/CO_driver_STM32.c ****     }
 1064              		.loc 1 359 30 view .LVU332
 1065 004c 0133     		adds	r3, r3, #1
 1066 004e 9BB2     		uxth	r3, r3
 1067 0050 A384     		strh	r3, [r4, #36]	@ movhi
 1068 0052 EFE7     		b	.L79
 1069              		.cfi_endproc
 1070              	.LFE171:
 1072              		.section	.text.CO_CANclearPendingSyncPDOs,"ax",%progbits
 1073              		.align	1
 1074              		.global	CO_CANclearPendingSyncPDOs
 1075              		.syntax unified
 1076              		.thumb
 1077              		.thumb_func
 1079              	CO_CANclearPendingSyncPDOs:
ARM GAS  C:\Users\walker\AppData\Local\Temp\ccWw4LAW.s 			page 42


 1080              	.LVL97:
 1081              	.LFB172:
 368:Middlewares/Third_Party/CANopenNode_STM32/CO_driver_STM32.c ****     uint32_t tpdoDeleted = 0U;
 1082              		.loc 1 368 55 is_stmt 1 view -0
 1083              		.cfi_startproc
 1084              		@ args = 0, pretend = 0, frame = 0
 1085              		@ frame_needed = 0, uses_anonymous_args = 0
 1086              		@ link register save eliminated.
 368:Middlewares/Third_Party/CANopenNode_STM32/CO_driver_STM32.c ****     uint32_t tpdoDeleted = 0U;
 1087              		.loc 1 368 55 is_stmt 0 view .LVU334
 1088 0000 10B4     		push	{r4}
 1089              	.LCFI22:
 1090              		.cfi_def_cfa_offset 4
 1091              		.cfi_offset 4, -4
 369:Middlewares/Third_Party/CANopenNode_STM32/CO_driver_STM32.c **** 
 1092              		.loc 1 369 5 is_stmt 1 view .LVU335
 1093              	.LVL98:
 371:Middlewares/Third_Party/CANopenNode_STM32/CO_driver_STM32.c ****     /* Abort message from CAN module, if there is synchronous TPDO.
 1094              		.loc 1 371 5 view .LVU336
 371:Middlewares/Third_Party/CANopenNode_STM32/CO_driver_STM32.c ****     /* Abort message from CAN module, if there is synchronous TPDO.
 1095              		.loc 1 371 5 view .LVU337
 1096              	.LBB33:
 1097              	.LBI33:
 382:Drivers/CMSIS/Include/cmsis_gcc.h **** {
 1098              		.loc 2 382 31 view .LVU338
 1099              	.LBB34:
 384:Drivers/CMSIS/Include/cmsis_gcc.h **** 
 1100              		.loc 2 384 3 view .LVU339
 386:Drivers/CMSIS/Include/cmsis_gcc.h ****   return(result);
 1101              		.loc 2 386 3 view .LVU340
 1102              		.syntax unified
 1103              	@ 386 "Drivers/CMSIS/Include/cmsis_gcc.h" 1
 1104 0002 EFF31083 		MRS r3, primask
 1105              	@ 0 "" 2
 1106              	.LVL99:
 387:Drivers/CMSIS/Include/cmsis_gcc.h **** }
 1107              		.loc 2 387 3 view .LVU341
 387:Drivers/CMSIS/Include/cmsis_gcc.h **** }
 1108              		.loc 2 387 3 is_stmt 0 view .LVU342
 1109              		.thumb
 1110              		.syntax unified
 1111              	.LBE34:
 1112              	.LBE33:
 371:Middlewares/Third_Party/CANopenNode_STM32/CO_driver_STM32.c ****     /* Abort message from CAN module, if there is synchronous TPDO.
 1113              		.loc 1 371 5 view .LVU343
 1114 0006 C362     		str	r3, [r0, #44]
 371:Middlewares/Third_Party/CANopenNode_STM32/CO_driver_STM32.c ****     /* Abort message from CAN module, if there is synchronous TPDO.
 1115              		.loc 1 371 5 is_stmt 1 view .LVU344
 1116              	.LBB35:
 1117              	.LBI35:
 140:Drivers/CMSIS/Include/cmsis_gcc.h **** {
 1118              		.loc 2 140 27 view .LVU345
 1119              	.LBB36:
 142:Drivers/CMSIS/Include/cmsis_gcc.h **** }
 1120              		.loc 2 142 3 view .LVU346
 1121              		.syntax unified
 1122              	@ 142 "Drivers/CMSIS/Include/cmsis_gcc.h" 1
ARM GAS  C:\Users\walker\AppData\Local\Temp\ccWw4LAW.s 			page 43


 1123 0008 72B6     		cpsid i
 1124              	@ 0 "" 2
 1125              		.thumb
 1126              		.syntax unified
 1127              	.LBE36:
 1128              	.LBE35:
 371:Middlewares/Third_Party/CANopenNode_STM32/CO_driver_STM32.c ****     /* Abort message from CAN module, if there is synchronous TPDO.
 1129              		.loc 1 371 5 view .LVU347
 374:Middlewares/Third_Party/CANopenNode_STM32/CO_driver_STM32.c ****         /* clear TXREQ */
 1130              		.loc 1 374 5 view .LVU348
 374:Middlewares/Third_Party/CANopenNode_STM32/CO_driver_STM32.c ****         /* clear TXREQ */
 1131              		.loc 1 374 47 is_stmt 0 view .LVU349
 1132 000a C469     		ldr	r4, [r0, #28]
 1133              	.LVL100:
 374:Middlewares/Third_Party/CANopenNode_STM32/CO_driver_STM32.c ****         /* clear TXREQ */
 1134              		.loc 1 374 8 view .LVU350
 1135 000c 14B1     		cbz	r4, .L84
 376:Middlewares/Third_Party/CANopenNode_STM32/CO_driver_STM32.c ****         tpdoDeleted = 1U;
 1136              		.loc 1 376 9 is_stmt 1 view .LVU351
 376:Middlewares/Third_Party/CANopenNode_STM32/CO_driver_STM32.c ****         tpdoDeleted = 1U;
 1137              		.loc 1 376 38 is_stmt 0 view .LVU352
 1138 000e 0023     		movs	r3, #0
 1139 0010 C361     		str	r3, [r0, #28]
 377:Middlewares/Third_Party/CANopenNode_STM32/CO_driver_STM32.c ****     }
 1140              		.loc 1 377 9 is_stmt 1 view .LVU353
 1141              	.LVL101:
 377:Middlewares/Third_Party/CANopenNode_STM32/CO_driver_STM32.c ****     }
 1142              		.loc 1 377 21 is_stmt 0 view .LVU354
 1143 0012 0124     		movs	r4, #1
 1144              	.LVL102:
 1145              	.L84:
 380:Middlewares/Third_Party/CANopenNode_STM32/CO_driver_STM32.c ****         for (uint16_t i = CANmodule->txSize; i > 0U; --i) {
 1146              		.loc 1 380 5 is_stmt 1 view .LVU355
 380:Middlewares/Third_Party/CANopenNode_STM32/CO_driver_STM32.c ****         for (uint16_t i = CANmodule->txSize; i > 0U; --i) {
 1147              		.loc 1 380 18 is_stmt 0 view .LVU356
 1148 0014 838C     		ldrh	r3, [r0, #36]
 1149 0016 9BB2     		uxth	r3, r3
 380:Middlewares/Third_Party/CANopenNode_STM32/CO_driver_STM32.c ****         for (uint16_t i = CANmodule->txSize; i > 0U; --i) {
 1150              		.loc 1 380 8 view .LVU357
 1151 0018 C3B1     		cbz	r3, .L85
 381:Middlewares/Third_Party/CANopenNode_STM32/CO_driver_STM32.c ****             if (CANmodule->txArray[i].bufferFull) {
 1152              		.loc 1 381 9 is_stmt 1 view .LVU358
 1153              	.LBB37:
 381:Middlewares/Third_Party/CANopenNode_STM32/CO_driver_STM32.c ****             if (CANmodule->txArray[i].bufferFull) {
 1154              		.loc 1 381 14 view .LVU359
 381:Middlewares/Third_Party/CANopenNode_STM32/CO_driver_STM32.c ****             if (CANmodule->txArray[i].bufferFull) {
 1155              		.loc 1 381 23 is_stmt 0 view .LVU360
 1156 001a 038A     		ldrh	r3, [r0, #16]
 1157              	.LVL103:
 381:Middlewares/Third_Party/CANopenNode_STM32/CO_driver_STM32.c ****             if (CANmodule->txArray[i].bufferFull) {
 1158              		.loc 1 381 9 view .LVU361
 1159 001c 01E0     		b	.L86
 1160              	.LVL104:
 1161              	.L87:
 381:Middlewares/Third_Party/CANopenNode_STM32/CO_driver_STM32.c ****             if (CANmodule->txArray[i].bufferFull) {
 1162              		.loc 1 381 54 is_stmt 1 discriminator 2 view .LVU362
 1163 001e 013B     		subs	r3, r3, #1
ARM GAS  C:\Users\walker\AppData\Local\Temp\ccWw4LAW.s 			page 44


 1164              	.LVL105:
 381:Middlewares/Third_Party/CANopenNode_STM32/CO_driver_STM32.c ****             if (CANmodule->txArray[i].bufferFull) {
 1165              		.loc 1 381 54 is_stmt 0 discriminator 2 view .LVU363
 1166 0020 9BB2     		uxth	r3, r3
 1167              	.LVL106:
 1168              	.L86:
 381:Middlewares/Third_Party/CANopenNode_STM32/CO_driver_STM32.c ****             if (CANmodule->txArray[i].bufferFull) {
 1169              		.loc 1 381 46 is_stmt 1 discriminator 1 view .LVU364
 381:Middlewares/Third_Party/CANopenNode_STM32/CO_driver_STM32.c ****             if (CANmodule->txArray[i].bufferFull) {
 1170              		.loc 1 381 9 is_stmt 0 discriminator 1 view .LVU365
 1171 0022 9BB1     		cbz	r3, .L85
 382:Middlewares/Third_Party/CANopenNode_STM32/CO_driver_STM32.c ****                 if (CANmodule->txArray[i].syncFlag) {
 1172              		.loc 1 382 13 is_stmt 1 view .LVU366
 382:Middlewares/Third_Party/CANopenNode_STM32/CO_driver_STM32.c ****                 if (CANmodule->txArray[i].syncFlag) {
 1173              		.loc 1 382 26 is_stmt 0 view .LVU367
 1174 0024 C268     		ldr	r2, [r0, #12]
 382:Middlewares/Third_Party/CANopenNode_STM32/CO_driver_STM32.c ****                 if (CANmodule->txArray[i].syncFlag) {
 1175              		.loc 1 382 35 view .LVU368
 1176 0026 03EB4301 		add	r1, r3, r3, lsl #1
 1177 002a 02EBC102 		add	r2, r2, r1, lsl #3
 382:Middlewares/Third_Party/CANopenNode_STM32/CO_driver_STM32.c ****                 if (CANmodule->txArray[i].syncFlag) {
 1178              		.loc 1 382 38 view .LVU369
 1179 002e 1169     		ldr	r1, [r2, #16]
 382:Middlewares/Third_Party/CANopenNode_STM32/CO_driver_STM32.c ****                 if (CANmodule->txArray[i].syncFlag) {
 1180              		.loc 1 382 16 view .LVU370
 1181 0030 0029     		cmp	r1, #0
 1182 0032 F4D0     		beq	.L87
 383:Middlewares/Third_Party/CANopenNode_STM32/CO_driver_STM32.c ****                     CANmodule->txArray[i].bufferFull = false;
 1183              		.loc 1 383 17 is_stmt 1 view .LVU371
 383:Middlewares/Third_Party/CANopenNode_STM32/CO_driver_STM32.c ****                     CANmodule->txArray[i].bufferFull = false;
 1184              		.loc 1 383 42 is_stmt 0 view .LVU372
 1185 0034 5169     		ldr	r1, [r2, #20]
 383:Middlewares/Third_Party/CANopenNode_STM32/CO_driver_STM32.c ****                     CANmodule->txArray[i].bufferFull = false;
 1186              		.loc 1 383 20 view .LVU373
 1187 0036 0029     		cmp	r1, #0
 1188 0038 F1D0     		beq	.L87
 384:Middlewares/Third_Party/CANopenNode_STM32/CO_driver_STM32.c ****                     CANmodule->CANtxCount--;
 1189              		.loc 1 384 21 is_stmt 1 view .LVU374
 384:Middlewares/Third_Party/CANopenNode_STM32/CO_driver_STM32.c ****                     CANmodule->CANtxCount--;
 1190              		.loc 1 384 54 is_stmt 0 view .LVU375
 1191 003a 0021     		movs	r1, #0
 1192 003c 1161     		str	r1, [r2, #16]
 385:Middlewares/Third_Party/CANopenNode_STM32/CO_driver_STM32.c ****                     tpdoDeleted = 2U;
 1193              		.loc 1 385 21 is_stmt 1 view .LVU376
 385:Middlewares/Third_Party/CANopenNode_STM32/CO_driver_STM32.c ****                     tpdoDeleted = 2U;
 1194              		.loc 1 385 30 is_stmt 0 view .LVU377
 1195 003e 828C     		ldrh	r2, [r0, #36]
 1196 0040 92B2     		uxth	r2, r2
 385:Middlewares/Third_Party/CANopenNode_STM32/CO_driver_STM32.c ****                     tpdoDeleted = 2U;
 1197              		.loc 1 385 42 view .LVU378
 1198 0042 013A     		subs	r2, r2, #1
 1199 0044 92B2     		uxth	r2, r2
 1200 0046 8284     		strh	r2, [r0, #36]	@ movhi
 386:Middlewares/Third_Party/CANopenNode_STM32/CO_driver_STM32.c ****                 }
 1201              		.loc 1 386 21 is_stmt 1 view .LVU379
 1202              	.LVL107:
 386:Middlewares/Third_Party/CANopenNode_STM32/CO_driver_STM32.c ****                 }
ARM GAS  C:\Users\walker\AppData\Local\Temp\ccWw4LAW.s 			page 45


 1203              		.loc 1 386 33 is_stmt 0 view .LVU380
 1204 0048 0224     		movs	r4, #2
 1205 004a E8E7     		b	.L87
 1206              	.LVL108:
 1207              	.L85:
 386:Middlewares/Third_Party/CANopenNode_STM32/CO_driver_STM32.c ****                 }
 1208              		.loc 1 386 33 view .LVU381
 1209              	.LBE37:
 391:Middlewares/Third_Party/CANopenNode_STM32/CO_driver_STM32.c ****     if (tpdoDeleted) {
 1210              		.loc 1 391 5 is_stmt 1 view .LVU382
 1211 004c C36A     		ldr	r3, [r0, #44]
 1212              	.LVL109:
 1213              	.LBB38:
 1214              	.LBI38:
 412:Drivers/CMSIS/Include/cmsis_gcc.h **** {
 1215              		.loc 2 412 27 view .LVU383
 1216              	.LBB39:
 1217              		.loc 2 414 3 view .LVU384
 1218              		.syntax unified
 1219              	@ 414 "Drivers/CMSIS/Include/cmsis_gcc.h" 1
 1220 004e 83F31088 		MSR primask, r3
 1221              	@ 0 "" 2
 1222              	.LVL110:
 1223              		.loc 2 414 3 is_stmt 0 view .LVU385
 1224              		.thumb
 1225              		.syntax unified
 1226              	.LBE39:
 1227              	.LBE38:
 392:Middlewares/Third_Party/CANopenNode_STM32/CO_driver_STM32.c ****         CANmodule->CANerrorStatus |= CO_CAN_ERRTX_PDO_LATE;
 1228              		.loc 1 392 5 is_stmt 1 view .LVU386
 392:Middlewares/Third_Party/CANopenNode_STM32/CO_driver_STM32.c ****         CANmodule->CANerrorStatus |= CO_CAN_ERRTX_PDO_LATE;
 1229              		.loc 1 392 8 is_stmt 0 view .LVU387
 1230 0052 1CB1     		cbz	r4, .L83
 393:Middlewares/Third_Party/CANopenNode_STM32/CO_driver_STM32.c ****     }
 1231              		.loc 1 393 9 is_stmt 1 view .LVU388
 393:Middlewares/Third_Party/CANopenNode_STM32/CO_driver_STM32.c ****     }
 1232              		.loc 1 393 35 is_stmt 0 view .LVU389
 1233 0054 438A     		ldrh	r3, [r0, #18]
 1234 0056 43F08003 		orr	r3, r3, #128
 1235 005a 4382     		strh	r3, [r0, #18]	@ movhi
 1236              	.L83:
 395:Middlewares/Third_Party/CANopenNode_STM32/CO_driver_STM32.c **** 
 1237              		.loc 1 395 1 view .LVU390
 1238 005c 5DF8044B 		ldr	r4, [sp], #4
 1239              	.LCFI23:
 1240              		.cfi_restore 4
 1241              		.cfi_def_cfa_offset 0
 1242              	.LVL111:
 395:Middlewares/Third_Party/CANopenNode_STM32/CO_driver_STM32.c **** 
 1243              		.loc 1 395 1 view .LVU391
 1244 0060 7047     		bx	lr
 1245              		.cfi_endproc
 1246              	.LFE172:
 1248              		.section	.text.CO_CANmodule_process,"ax",%progbits
 1249              		.align	1
 1250              		.global	CO_CANmodule_process
 1251              		.syntax unified
ARM GAS  C:\Users\walker\AppData\Local\Temp\ccWw4LAW.s 			page 46


 1252              		.thumb
 1253              		.thumb_func
 1255              	CO_CANmodule_process:
 1256              	.LVL112:
 1257              	.LFB173:
 403:Middlewares/Third_Party/CANopenNode_STM32/CO_driver_STM32.c ****     uint32_t err = 0;
 1258              		.loc 1 403 49 is_stmt 1 view -0
 1259              		.cfi_startproc
 1260              		@ args = 0, pretend = 0, frame = 0
 1261              		@ frame_needed = 0, uses_anonymous_args = 0
 1262              		@ link register save eliminated.
 404:Middlewares/Third_Party/CANopenNode_STM32/CO_driver_STM32.c **** 
 1263              		.loc 1 404 5 view .LVU393
 443:Middlewares/Third_Party/CANopenNode_STM32/CO_driver_STM32.c ****           & (CAN_ESR_BOFF | CAN_ESR_EPVF | CAN_ESR_EWGF);
 1264              		.loc 1 443 5 view .LVU394
 443:Middlewares/Third_Party/CANopenNode_STM32/CO_driver_STM32.c ****           & (CAN_ESR_BOFF | CAN_ESR_EPVF | CAN_ESR_EWGF);
 1265              		.loc 1 443 61 is_stmt 0 view .LVU395
 1266 0000 0368     		ldr	r3, [r0]
 443:Middlewares/Third_Party/CANopenNode_STM32/CO_driver_STM32.c ****           & (CAN_ESR_BOFF | CAN_ESR_EPVF | CAN_ESR_EWGF);
 1267              		.loc 1 443 70 view .LVU396
 1268 0002 9B68     		ldr	r3, [r3, #8]
 443:Middlewares/Third_Party/CANopenNode_STM32/CO_driver_STM32.c ****           & (CAN_ESR_BOFF | CAN_ESR_EPVF | CAN_ESR_EWGF);
 1269              		.loc 1 443 82 view .LVU397
 1270 0004 1B68     		ldr	r3, [r3]
 443:Middlewares/Third_Party/CANopenNode_STM32/CO_driver_STM32.c ****           & (CAN_ESR_BOFF | CAN_ESR_EPVF | CAN_ESR_EWGF);
 1271              		.loc 1 443 92 view .LVU398
 1272 0006 9A69     		ldr	r2, [r3, #24]
 443:Middlewares/Third_Party/CANopenNode_STM32/CO_driver_STM32.c ****           & (CAN_ESR_BOFF | CAN_ESR_EPVF | CAN_ESR_EWGF);
 1273              		.loc 1 443 9 view .LVU399
 1274 0008 02F00701 		and	r1, r2, #7
 1275              	.LVL113:
 447:Middlewares/Third_Party/CANopenNode_STM32/CO_driver_STM32.c **** 
 1276              		.loc 1 447 5 is_stmt 1 view .LVU400
 447:Middlewares/Third_Party/CANopenNode_STM32/CO_driver_STM32.c **** 
 1277              		.loc 1 447 18 is_stmt 0 view .LVU401
 1278 000c 836A     		ldr	r3, [r0, #40]
 447:Middlewares/Third_Party/CANopenNode_STM32/CO_driver_STM32.c **** 
 1279              		.loc 1 447 8 view .LVU402
 1280 000e 8B42     		cmp	r3, r1
 1281 0010 07D0     		beq	.L91
 1282              	.LBB40:
 449:Middlewares/Third_Party/CANopenNode_STM32/CO_driver_STM32.c **** 
 1283              		.loc 1 449 9 is_stmt 1 view .LVU403
 449:Middlewares/Third_Party/CANopenNode_STM32/CO_driver_STM32.c **** 
 1284              		.loc 1 449 18 is_stmt 0 view .LVU404
 1285 0012 438A     		ldrh	r3, [r0, #18]
 1286              	.LVL114:
 451:Middlewares/Third_Party/CANopenNode_STM32/CO_driver_STM32.c **** 
 1287              		.loc 1 451 9 is_stmt 1 view .LVU405
 451:Middlewares/Third_Party/CANopenNode_STM32/CO_driver_STM32.c **** 
 1288              		.loc 1 451 27 is_stmt 0 view .LVU406
 1289 0014 8162     		str	r1, [r0, #40]
 453:Middlewares/Third_Party/CANopenNode_STM32/CO_driver_STM32.c ****             status |= CO_CAN_ERRTX_BUS_OFF;
 1290              		.loc 1 453 9 is_stmt 1 view .LVU407
 453:Middlewares/Third_Party/CANopenNode_STM32/CO_driver_STM32.c ****             status |= CO_CAN_ERRTX_BUS_OFF;
 1291              		.loc 1 453 12 is_stmt 0 view .LVU408
 1292 0016 12F0040F 		tst	r2, #4
ARM GAS  C:\Users\walker\AppData\Local\Temp\ccWw4LAW.s 			page 47


 1293 001a 03D0     		beq	.L93
 454:Middlewares/Third_Party/CANopenNode_STM32/CO_driver_STM32.c ****             // In this driver, we assume that auto bus recovery is activated ! so this error will e
 1294              		.loc 1 454 13 is_stmt 1 view .LVU409
 454:Middlewares/Third_Party/CANopenNode_STM32/CO_driver_STM32.c ****             // In this driver, we assume that auto bus recovery is activated ! so this error will e
 1295              		.loc 1 454 20 is_stmt 0 view .LVU410
 1296 001c 43F00403 		orr	r3, r3, #4
 1297              	.LVL115:
 1298              	.L94:
 472:Middlewares/Third_Party/CANopenNode_STM32/CO_driver_STM32.c ****     }
 1299              		.loc 1 472 9 is_stmt 1 view .LVU411
 472:Middlewares/Third_Party/CANopenNode_STM32/CO_driver_STM32.c ****     }
 1300              		.loc 1 472 35 is_stmt 0 view .LVU412
 1301 0020 4382     		strh	r3, [r0, #18]	@ movhi
 1302              	.LVL116:
 1303              	.L91:
 472:Middlewares/Third_Party/CANopenNode_STM32/CO_driver_STM32.c ****     }
 1304              		.loc 1 472 35 view .LVU413
 1305              	.LBE40:
 476:Middlewares/Third_Party/CANopenNode_STM32/CO_driver_STM32.c **** 
 1306              		.loc 1 476 1 view .LVU414
 1307 0022 7047     		bx	lr
 1308              	.LVL117:
 1309              	.L93:
 1310              	.LBB41:
 459:Middlewares/Third_Party/CANopenNode_STM32/CO_driver_STM32.c ****                       ^ (CO_CAN_ERRTX_BUS_OFF | CO_CAN_ERRRX_WARNING | CO_CAN_ERRRX_PASSIVE | CO_CA
 1311              		.loc 1 459 13 is_stmt 1 view .LVU415
 459:Middlewares/Third_Party/CANopenNode_STM32/CO_driver_STM32.c ****                       ^ (CO_CAN_ERRTX_BUS_OFF | CO_CAN_ERRRX_WARNING | CO_CAN_ERRRX_PASSIVE | CO_CA
 1312              		.loc 1 459 20 is_stmt 0 view .LVU416
 1313 0024 23F44173 		bic	r3, r3, #772
 1314              	.LVL118:
 459:Middlewares/Third_Party/CANopenNode_STM32/CO_driver_STM32.c ****                       ^ (CO_CAN_ERRTX_BUS_OFF | CO_CAN_ERRRX_WARNING | CO_CAN_ERRRX_PASSIVE | CO_CA
 1315              		.loc 1 459 20 view .LVU417
 1316 0028 23F00303 		bic	r3, r3, #3
 1317 002c 9BB2     		uxth	r3, r3
 1318              	.LVL119:
 463:Middlewares/Third_Party/CANopenNode_STM32/CO_driver_STM32.c ****                 status |= CO_CAN_ERRRX_WARNING | CO_CAN_ERRTX_WARNING;
 1319              		.loc 1 463 13 is_stmt 1 view .LVU418
 463:Middlewares/Third_Party/CANopenNode_STM32/CO_driver_STM32.c ****                 status |= CO_CAN_ERRRX_WARNING | CO_CAN_ERRTX_WARNING;
 1320              		.loc 1 463 16 is_stmt 0 view .LVU419
 1321 002e 12F0010F 		tst	r2, #1
 1322 0032 03D0     		beq	.L95
 464:Middlewares/Third_Party/CANopenNode_STM32/CO_driver_STM32.c ****             }
 1323              		.loc 1 464 17 is_stmt 1 view .LVU420
 464:Middlewares/Third_Party/CANopenNode_STM32/CO_driver_STM32.c ****             }
 1324              		.loc 1 464 24 is_stmt 0 view .LVU421
 1325 0034 43F48073 		orr	r3, r3, #256
 1326              	.LVL120:
 464:Middlewares/Third_Party/CANopenNode_STM32/CO_driver_STM32.c ****             }
 1327              		.loc 1 464 24 view .LVU422
 1328 0038 43F00103 		orr	r3, r3, #1
 1329              	.LVL121:
 1330              	.L95:
 467:Middlewares/Third_Party/CANopenNode_STM32/CO_driver_STM32.c ****                 status |= CO_CAN_ERRRX_PASSIVE | CO_CAN_ERRTX_PASSIVE;
 1331              		.loc 1 467 13 is_stmt 1 view .LVU423
 467:Middlewares/Third_Party/CANopenNode_STM32/CO_driver_STM32.c ****                 status |= CO_CAN_ERRRX_PASSIVE | CO_CAN_ERRTX_PASSIVE;
 1332              		.loc 1 467 16 is_stmt 0 view .LVU424
 1333 003c 12F0020F 		tst	r2, #2
ARM GAS  C:\Users\walker\AppData\Local\Temp\ccWw4LAW.s 			page 48


 1334 0040 EED0     		beq	.L94
 468:Middlewares/Third_Party/CANopenNode_STM32/CO_driver_STM32.c ****             }
 1335              		.loc 1 468 17 is_stmt 1 view .LVU425
 468:Middlewares/Third_Party/CANopenNode_STM32/CO_driver_STM32.c ****             }
 1336              		.loc 1 468 24 is_stmt 0 view .LVU426
 1337 0042 43F40073 		orr	r3, r3, #512
 1338              	.LVL122:
 468:Middlewares/Third_Party/CANopenNode_STM32/CO_driver_STM32.c ****             }
 1339              		.loc 1 468 24 view .LVU427
 1340 0046 43F00203 		orr	r3, r3, #2
 1341              	.LVL123:
 468:Middlewares/Third_Party/CANopenNode_STM32/CO_driver_STM32.c ****             }
 1342              		.loc 1 468 24 view .LVU428
 1343 004a E9E7     		b	.L94
 1344              	.LBE41:
 1345              		.cfi_endproc
 1346              	.LFE173:
 1348              		.section	.text.HAL_CAN_RxFifo0MsgPendingCallback,"ax",%progbits
 1349              		.align	1
 1350              		.global	HAL_CAN_RxFifo0MsgPendingCallback
 1351              		.syntax unified
 1352              		.thumb
 1353              		.thumb_func
 1355              	HAL_CAN_RxFifo0MsgPendingCallback:
 1356              	.LVL124:
 1357              	.LFB175:
 578:Middlewares/Third_Party/CANopenNode_STM32/CO_driver_STM32.c **** 
 579:Middlewares/Third_Party/CANopenNode_STM32/CO_driver_STM32.c **** #ifdef CO_STM32_FDCAN_Driver
 580:Middlewares/Third_Party/CANopenNode_STM32/CO_driver_STM32.c **** /**
 581:Middlewares/Third_Party/CANopenNode_STM32/CO_driver_STM32.c ****  * \brief           Rx FIFO 0 callback.
 582:Middlewares/Third_Party/CANopenNode_STM32/CO_driver_STM32.c ****  * \param[in]       hfdcan: pointer to an FDCAN_HandleTypeDef structure that contains
 583:Middlewares/Third_Party/CANopenNode_STM32/CO_driver_STM32.c ****  *                      the configuration information for the specified FDCAN.
 584:Middlewares/Third_Party/CANopenNode_STM32/CO_driver_STM32.c ****  * \param[in]       RxFifo0ITs: indicates which Rx FIFO 0 interrupts are signaled.
 585:Middlewares/Third_Party/CANopenNode_STM32/CO_driver_STM32.c ****  */
 586:Middlewares/Third_Party/CANopenNode_STM32/CO_driver_STM32.c **** void
 587:Middlewares/Third_Party/CANopenNode_STM32/CO_driver_STM32.c **** HAL_FDCAN_RxFifo0Callback(FDCAN_HandleTypeDef* hfdcan, uint32_t RxFifo0ITs) {
 588:Middlewares/Third_Party/CANopenNode_STM32/CO_driver_STM32.c ****     if (RxFifo0ITs & FDCAN_IT_RX_FIFO0_NEW_MESSAGE) {
 589:Middlewares/Third_Party/CANopenNode_STM32/CO_driver_STM32.c ****         prv_read_can_received_msg(hfdcan, FDCAN_RX_FIFO0, RxFifo0ITs);
 590:Middlewares/Third_Party/CANopenNode_STM32/CO_driver_STM32.c ****     }
 591:Middlewares/Third_Party/CANopenNode_STM32/CO_driver_STM32.c **** }
 592:Middlewares/Third_Party/CANopenNode_STM32/CO_driver_STM32.c **** 
 593:Middlewares/Third_Party/CANopenNode_STM32/CO_driver_STM32.c **** /**
 594:Middlewares/Third_Party/CANopenNode_STM32/CO_driver_STM32.c ****  * \brief           Rx FIFO 1 callback.
 595:Middlewares/Third_Party/CANopenNode_STM32/CO_driver_STM32.c ****  * \param[in]       hfdcan: pointer to an FDCAN_HandleTypeDef structure that contains
 596:Middlewares/Third_Party/CANopenNode_STM32/CO_driver_STM32.c ****  *                      the configuration information for the specified FDCAN.
 597:Middlewares/Third_Party/CANopenNode_STM32/CO_driver_STM32.c ****  * \param[in]       RxFifo1ITs: indicates which Rx FIFO 0 interrupts are signaled.
 598:Middlewares/Third_Party/CANopenNode_STM32/CO_driver_STM32.c ****  */
 599:Middlewares/Third_Party/CANopenNode_STM32/CO_driver_STM32.c **** void
 600:Middlewares/Third_Party/CANopenNode_STM32/CO_driver_STM32.c **** HAL_FDCAN_RxFifo1Callback(FDCAN_HandleTypeDef* hfdcan, uint32_t RxFifo1ITs) {
 601:Middlewares/Third_Party/CANopenNode_STM32/CO_driver_STM32.c ****     if (RxFifo1ITs & FDCAN_IT_RX_FIFO1_NEW_MESSAGE) {
 602:Middlewares/Third_Party/CANopenNode_STM32/CO_driver_STM32.c ****         prv_read_can_received_msg(hfdcan, FDCAN_RX_FIFO1, RxFifo1ITs);
 603:Middlewares/Third_Party/CANopenNode_STM32/CO_driver_STM32.c ****     }
 604:Middlewares/Third_Party/CANopenNode_STM32/CO_driver_STM32.c **** }
 605:Middlewares/Third_Party/CANopenNode_STM32/CO_driver_STM32.c **** 
 606:Middlewares/Third_Party/CANopenNode_STM32/CO_driver_STM32.c **** /**
 607:Middlewares/Third_Party/CANopenNode_STM32/CO_driver_STM32.c ****  * \brief           TX buffer has been well transmitted callback
 608:Middlewares/Third_Party/CANopenNode_STM32/CO_driver_STM32.c ****  * \param[in]       hfdcan: pointer to an FDCAN_HandleTypeDef structure that contains
ARM GAS  C:\Users\walker\AppData\Local\Temp\ccWw4LAW.s 			page 49


 609:Middlewares/Third_Party/CANopenNode_STM32/CO_driver_STM32.c ****  *                      the configuration information for the specified FDCAN.
 610:Middlewares/Third_Party/CANopenNode_STM32/CO_driver_STM32.c ****  * \param[in]       BufferIndexes: Bits of successfully sent TX buffers
 611:Middlewares/Third_Party/CANopenNode_STM32/CO_driver_STM32.c ****  */
 612:Middlewares/Third_Party/CANopenNode_STM32/CO_driver_STM32.c **** void
 613:Middlewares/Third_Party/CANopenNode_STM32/CO_driver_STM32.c **** HAL_FDCAN_TxBufferCompleteCallback(FDCAN_HandleTypeDef* hfdcan, uint32_t BufferIndexes) {
 614:Middlewares/Third_Party/CANopenNode_STM32/CO_driver_STM32.c ****     CANModule_local->firstCANtxMessage = false;            /* First CAN message (bootup) was sent s
 615:Middlewares/Third_Party/CANopenNode_STM32/CO_driver_STM32.c ****     CANModule_local->bufferInhibitFlag = false;            /* Clear flag from previous message */
 616:Middlewares/Third_Party/CANopenNode_STM32/CO_driver_STM32.c ****     if (CANModule_local->CANtxCount > 0U) {                /* Are there any new messages waiting to
 617:Middlewares/Third_Party/CANopenNode_STM32/CO_driver_STM32.c ****         CO_CANtx_t* buffer = &CANModule_local->txArray[0]; /* Start with first buffer handle */
 618:Middlewares/Third_Party/CANopenNode_STM32/CO_driver_STM32.c ****         uint16_t i;
 619:Middlewares/Third_Party/CANopenNode_STM32/CO_driver_STM32.c **** 
 620:Middlewares/Third_Party/CANopenNode_STM32/CO_driver_STM32.c ****         /*
 621:Middlewares/Third_Party/CANopenNode_STM32/CO_driver_STM32.c ****          * Try to send more buffers, process all empty ones
 622:Middlewares/Third_Party/CANopenNode_STM32/CO_driver_STM32.c ****          *
 623:Middlewares/Third_Party/CANopenNode_STM32/CO_driver_STM32.c ****          * This function is always called from interrupt,
 624:Middlewares/Third_Party/CANopenNode_STM32/CO_driver_STM32.c ****          * however to make sure no preemption can happen, interrupts are anyway locked
 625:Middlewares/Third_Party/CANopenNode_STM32/CO_driver_STM32.c ****          * (unless you can guarantee no higher priority interrupt will try to access to FDCAN insta
 626:Middlewares/Third_Party/CANopenNode_STM32/CO_driver_STM32.c ****          *  then no need to lock interrupts..)
 627:Middlewares/Third_Party/CANopenNode_STM32/CO_driver_STM32.c ****          */
 628:Middlewares/Third_Party/CANopenNode_STM32/CO_driver_STM32.c ****         CO_LOCK_CAN_SEND(CANModule_local);
 629:Middlewares/Third_Party/CANopenNode_STM32/CO_driver_STM32.c ****         for (i = CANModule_local->txSize; i > 0U; --i, ++buffer) {
 630:Middlewares/Third_Party/CANopenNode_STM32/CO_driver_STM32.c ****             /* Try to send message */
 631:Middlewares/Third_Party/CANopenNode_STM32/CO_driver_STM32.c ****             if (buffer->bufferFull) {
 632:Middlewares/Third_Party/CANopenNode_STM32/CO_driver_STM32.c ****                 if (prv_send_can_message(CANModule_local, buffer)) {
 633:Middlewares/Third_Party/CANopenNode_STM32/CO_driver_STM32.c ****                     buffer->bufferFull = false;
 634:Middlewares/Third_Party/CANopenNode_STM32/CO_driver_STM32.c ****                     CANModule_local->CANtxCount--;
 635:Middlewares/Third_Party/CANopenNode_STM32/CO_driver_STM32.c ****                     CANModule_local->bufferInhibitFlag = buffer->syncFlag;
 636:Middlewares/Third_Party/CANopenNode_STM32/CO_driver_STM32.c ****                 }
 637:Middlewares/Third_Party/CANopenNode_STM32/CO_driver_STM32.c ****             }
 638:Middlewares/Third_Party/CANopenNode_STM32/CO_driver_STM32.c ****         }
 639:Middlewares/Third_Party/CANopenNode_STM32/CO_driver_STM32.c ****         /* Clear counter if no more messages */
 640:Middlewares/Third_Party/CANopenNode_STM32/CO_driver_STM32.c ****         if (i == 0U) {
 641:Middlewares/Third_Party/CANopenNode_STM32/CO_driver_STM32.c ****             CANModule_local->CANtxCount = 0U;
 642:Middlewares/Third_Party/CANopenNode_STM32/CO_driver_STM32.c ****         }
 643:Middlewares/Third_Party/CANopenNode_STM32/CO_driver_STM32.c ****         CO_UNLOCK_CAN_SEND(CANModule_local);
 644:Middlewares/Third_Party/CANopenNode_STM32/CO_driver_STM32.c ****     }
 645:Middlewares/Third_Party/CANopenNode_STM32/CO_driver_STM32.c **** }
 646:Middlewares/Third_Party/CANopenNode_STM32/CO_driver_STM32.c **** #else
 647:Middlewares/Third_Party/CANopenNode_STM32/CO_driver_STM32.c **** /**
 648:Middlewares/Third_Party/CANopenNode_STM32/CO_driver_STM32.c ****  * \brief           Rx FIFO 0 callback.
 649:Middlewares/Third_Party/CANopenNode_STM32/CO_driver_STM32.c ****  * \param[in]       hcan: pointer to an CAN_HandleTypeDef structure that contains
 650:Middlewares/Third_Party/CANopenNode_STM32/CO_driver_STM32.c ****  *                      the configuration information for the specified CAN.
 651:Middlewares/Third_Party/CANopenNode_STM32/CO_driver_STM32.c ****  */
 652:Middlewares/Third_Party/CANopenNode_STM32/CO_driver_STM32.c **** void
 653:Middlewares/Third_Party/CANopenNode_STM32/CO_driver_STM32.c **** HAL_CAN_RxFifo0MsgPendingCallback(CAN_HandleTypeDef* hcan) {
 1358              		.loc 1 653 60 is_stmt 1 view -0
 1359              		.cfi_startproc
 1360              		@ args = 0, pretend = 0, frame = 0
 1361              		@ frame_needed = 0, uses_anonymous_args = 0
 1362              		.loc 1 653 60 is_stmt 0 view .LVU430
 1363 0000 08B5     		push	{r3, lr}
 1364              	.LCFI24:
 1365              		.cfi_def_cfa_offset 8
 1366              		.cfi_offset 3, -8
 1367              		.cfi_offset 14, -4
 654:Middlewares/Third_Party/CANopenNode_STM32/CO_driver_STM32.c ****     prv_read_can_received_msg(hcan, CAN_RX_FIFO0, 0);
 1368              		.loc 1 654 5 is_stmt 1 view .LVU431
ARM GAS  C:\Users\walker\AppData\Local\Temp\ccWw4LAW.s 			page 50


 1369 0002 0022     		movs	r2, #0
 1370 0004 1146     		mov	r1, r2
 1371 0006 FFF7FEFF 		bl	prv_read_can_received_msg
 1372              	.LVL125:
 655:Middlewares/Third_Party/CANopenNode_STM32/CO_driver_STM32.c **** }
 1373              		.loc 1 655 1 is_stmt 0 view .LVU432
 1374 000a 08BD     		pop	{r3, pc}
 1375              		.cfi_endproc
 1376              	.LFE175:
 1378              		.section	.text.HAL_CAN_RxFifo1MsgPendingCallback,"ax",%progbits
 1379              		.align	1
 1380              		.global	HAL_CAN_RxFifo1MsgPendingCallback
 1381              		.syntax unified
 1382              		.thumb
 1383              		.thumb_func
 1385              	HAL_CAN_RxFifo1MsgPendingCallback:
 1386              	.LVL126:
 1387              	.LFB176:
 656:Middlewares/Third_Party/CANopenNode_STM32/CO_driver_STM32.c **** 
 657:Middlewares/Third_Party/CANopenNode_STM32/CO_driver_STM32.c **** /**
 658:Middlewares/Third_Party/CANopenNode_STM32/CO_driver_STM32.c ****  * \brief           Rx FIFO 1 callback.
 659:Middlewares/Third_Party/CANopenNode_STM32/CO_driver_STM32.c ****  * \param[in]       hcan: pointer to an CAN_HandleTypeDef structure that contains
 660:Middlewares/Third_Party/CANopenNode_STM32/CO_driver_STM32.c ****  *                      the configuration information for the specified CAN.
 661:Middlewares/Third_Party/CANopenNode_STM32/CO_driver_STM32.c ****  */
 662:Middlewares/Third_Party/CANopenNode_STM32/CO_driver_STM32.c **** void
 663:Middlewares/Third_Party/CANopenNode_STM32/CO_driver_STM32.c **** HAL_CAN_RxFifo1MsgPendingCallback(CAN_HandleTypeDef* hcan) {
 1388              		.loc 1 663 60 is_stmt 1 view -0
 1389              		.cfi_startproc
 1390              		@ args = 0, pretend = 0, frame = 0
 1391              		@ frame_needed = 0, uses_anonymous_args = 0
 1392              		.loc 1 663 60 is_stmt 0 view .LVU434
 1393 0000 08B5     		push	{r3, lr}
 1394              	.LCFI25:
 1395              		.cfi_def_cfa_offset 8
 1396              		.cfi_offset 3, -8
 1397              		.cfi_offset 14, -4
 664:Middlewares/Third_Party/CANopenNode_STM32/CO_driver_STM32.c ****     prv_read_can_received_msg(hcan, CAN_RX_FIFO1, 0);
 1398              		.loc 1 664 5 is_stmt 1 view .LVU435
 1399 0002 0022     		movs	r2, #0
 1400 0004 0121     		movs	r1, #1
 1401 0006 FFF7FEFF 		bl	prv_read_can_received_msg
 1402              	.LVL127:
 665:Middlewares/Third_Party/CANopenNode_STM32/CO_driver_STM32.c **** }
 1403              		.loc 1 665 1 is_stmt 0 view .LVU436
 1404 000a 08BD     		pop	{r3, pc}
 1405              		.cfi_endproc
 1406              	.LFE176:
 1408              		.section	.text.CO_CANinterrupt_TX,"ax",%progbits
 1409              		.align	1
 1410              		.global	CO_CANinterrupt_TX
 1411              		.syntax unified
 1412              		.thumb
 1413              		.thumb_func
 1415              	CO_CANinterrupt_TX:
 1416              	.LVL128:
 1417              	.LFB177:
 666:Middlewares/Third_Party/CANopenNode_STM32/CO_driver_STM32.c **** 
ARM GAS  C:\Users\walker\AppData\Local\Temp\ccWw4LAW.s 			page 51


 667:Middlewares/Third_Party/CANopenNode_STM32/CO_driver_STM32.c **** /**
 668:Middlewares/Third_Party/CANopenNode_STM32/CO_driver_STM32.c ****  * \brief           TX buffer has been well transmitted callback
 669:Middlewares/Third_Party/CANopenNode_STM32/CO_driver_STM32.c ****  * \param[in]       hcan: pointer to an CAN_HandleTypeDef structure that contains
 670:Middlewares/Third_Party/CANopenNode_STM32/CO_driver_STM32.c ****  *                      the configuration information for the specified CAN.
 671:Middlewares/Third_Party/CANopenNode_STM32/CO_driver_STM32.c ****  * \param[in]       MailboxNumber: the mailbox number that has been transmitted
 672:Middlewares/Third_Party/CANopenNode_STM32/CO_driver_STM32.c ****  */
 673:Middlewares/Third_Party/CANopenNode_STM32/CO_driver_STM32.c **** void
 674:Middlewares/Third_Party/CANopenNode_STM32/CO_driver_STM32.c **** CO_CANinterrupt_TX(CO_CANmodule_t* CANmodule, uint32_t MailboxNumber) {
 1418              		.loc 1 674 71 is_stmt 1 view -0
 1419              		.cfi_startproc
 1420              		@ args = 0, pretend = 0, frame = 0
 1421              		@ frame_needed = 0, uses_anonymous_args = 0
 675:Middlewares/Third_Party/CANopenNode_STM32/CO_driver_STM32.c **** 
 676:Middlewares/Third_Party/CANopenNode_STM32/CO_driver_STM32.c ****     CANmodule->firstCANtxMessage = false;            /* First CAN message (bootup) was sent success
 1422              		.loc 1 676 5 view .LVU438
 1423              		.loc 1 676 34 is_stmt 0 view .LVU439
 1424 0000 0023     		movs	r3, #0
 1425 0002 0362     		str	r3, [r0, #32]
 677:Middlewares/Third_Party/CANopenNode_STM32/CO_driver_STM32.c ****     CANmodule->bufferInhibitFlag = false;            /* Clear flag from previous message */
 1426              		.loc 1 677 5 is_stmt 1 view .LVU440
 1427              		.loc 1 677 34 is_stmt 0 view .LVU441
 1428 0004 C361     		str	r3, [r0, #28]
 678:Middlewares/Third_Party/CANopenNode_STM32/CO_driver_STM32.c ****     if (CANmodule->CANtxCount > 0U) {                /* Are there any new messages waiting to be se
 1429              		.loc 1 678 5 is_stmt 1 view .LVU442
 1430              		.loc 1 678 18 is_stmt 0 view .LVU443
 1431 0006 838C     		ldrh	r3, [r0, #36]
 1432 0008 9BB2     		uxth	r3, r3
 1433              		.loc 1 678 8 view .LVU444
 1434 000a 2BB3     		cbz	r3, .L106
 674:Middlewares/Third_Party/CANopenNode_STM32/CO_driver_STM32.c **** 
 1435              		.loc 1 674 71 view .LVU445
 1436 000c 70B5     		push	{r4, r5, r6, lr}
 1437              	.LCFI26:
 1438              		.cfi_def_cfa_offset 16
 1439              		.cfi_offset 4, -16
 1440              		.cfi_offset 5, -12
 1441              		.cfi_offset 6, -8
 1442              		.cfi_offset 14, -4
 1443 000e 0646     		mov	r6, r0
 1444              	.LBB42:
 679:Middlewares/Third_Party/CANopenNode_STM32/CO_driver_STM32.c ****         CO_CANtx_t* buffer = &CANmodule->txArray[0]; /* Start with first buffer handle */
 1445              		.loc 1 679 9 is_stmt 1 view .LVU446
 1446              		.loc 1 679 21 is_stmt 0 view .LVU447
 1447 0010 C568     		ldr	r5, [r0, #12]
 1448              	.LVL129:
 680:Middlewares/Third_Party/CANopenNode_STM32/CO_driver_STM32.c ****         uint16_t i;
 1449              		.loc 1 680 9 is_stmt 1 view .LVU448
 681:Middlewares/Third_Party/CANopenNode_STM32/CO_driver_STM32.c **** 
 682:Middlewares/Third_Party/CANopenNode_STM32/CO_driver_STM32.c ****         /*
 683:Middlewares/Third_Party/CANopenNode_STM32/CO_driver_STM32.c **** 		 * Try to send more buffers, process all empty ones
 684:Middlewares/Third_Party/CANopenNode_STM32/CO_driver_STM32.c **** 		 *
 685:Middlewares/Third_Party/CANopenNode_STM32/CO_driver_STM32.c **** 		 * This function is always called from interrupt,
 686:Middlewares/Third_Party/CANopenNode_STM32/CO_driver_STM32.c **** 		 * however to make sure no preemption can happen, interrupts are anyway locked
 687:Middlewares/Third_Party/CANopenNode_STM32/CO_driver_STM32.c **** 		 * (unless you can guarantee no higher priority interrupt will try to access to CAN instance and 
 688:Middlewares/Third_Party/CANopenNode_STM32/CO_driver_STM32.c **** 		 *  then no need to lock interrupts..)
 689:Middlewares/Third_Party/CANopenNode_STM32/CO_driver_STM32.c **** 		 */
 690:Middlewares/Third_Party/CANopenNode_STM32/CO_driver_STM32.c ****         CO_LOCK_CAN_SEND(CANmodule);
ARM GAS  C:\Users\walker\AppData\Local\Temp\ccWw4LAW.s 			page 52


 1450              		.loc 1 690 9 view .LVU449
 1451              		.loc 1 690 9 view .LVU450
 1452              	.LBB43:
 1453              	.LBI43:
 382:Drivers/CMSIS/Include/cmsis_gcc.h **** {
 1454              		.loc 2 382 31 view .LVU451
 1455              	.LBB44:
 384:Drivers/CMSIS/Include/cmsis_gcc.h **** 
 1456              		.loc 2 384 3 view .LVU452
 386:Drivers/CMSIS/Include/cmsis_gcc.h ****   return(result);
 1457              		.loc 2 386 3 view .LVU453
 1458              		.syntax unified
 1459              	@ 386 "Drivers/CMSIS/Include/cmsis_gcc.h" 1
 1460 0012 EFF31083 		MRS r3, primask
 1461              	@ 0 "" 2
 1462              	.LVL130:
 387:Drivers/CMSIS/Include/cmsis_gcc.h **** }
 1463              		.loc 2 387 3 view .LVU454
 387:Drivers/CMSIS/Include/cmsis_gcc.h **** }
 1464              		.loc 2 387 3 is_stmt 0 view .LVU455
 1465              		.thumb
 1466              		.syntax unified
 1467              	.LBE44:
 1468              	.LBE43:
 1469              		.loc 1 690 9 view .LVU456
 1470 0016 C362     		str	r3, [r0, #44]
 1471              		.loc 1 690 9 is_stmt 1 view .LVU457
 1472              	.LBB45:
 1473              	.LBI45:
 140:Drivers/CMSIS/Include/cmsis_gcc.h **** {
 1474              		.loc 2 140 27 view .LVU458
 1475              	.LBB46:
 142:Drivers/CMSIS/Include/cmsis_gcc.h **** }
 1476              		.loc 2 142 3 view .LVU459
 1477              		.syntax unified
 1478              	@ 142 "Drivers/CMSIS/Include/cmsis_gcc.h" 1
 1479 0018 72B6     		cpsid i
 1480              	@ 0 "" 2
 1481              		.thumb
 1482              		.syntax unified
 1483              	.LBE46:
 1484              	.LBE45:
 1485              		.loc 1 690 9 view .LVU460
 691:Middlewares/Third_Party/CANopenNode_STM32/CO_driver_STM32.c ****         for (i = CANmodule->txSize; i > 0U; --i, ++buffer) {
 1486              		.loc 1 691 9 view .LVU461
 1487              		.loc 1 691 16 is_stmt 0 view .LVU462
 1488 001a 048A     		ldrh	r4, [r0, #16]
 1489              	.LVL131:
 1490              		.loc 1 691 9 view .LVU463
 1491 001c 02E0     		b	.L102
 1492              	.LVL132:
 1493              	.L103:
 1494              		.loc 1 691 45 is_stmt 1 discriminator 2 view .LVU464
 1495 001e 013C     		subs	r4, r4, #1
 1496              	.LVL133:
 1497              		.loc 1 691 45 is_stmt 0 discriminator 2 view .LVU465
 1498 0020 A4B2     		uxth	r4, r4
ARM GAS  C:\Users\walker\AppData\Local\Temp\ccWw4LAW.s 			page 53


 1499              	.LVL134:
 1500              		.loc 1 691 50 discriminator 2 view .LVU466
 1501 0022 1835     		adds	r5, r5, #24
 1502              	.LVL135:
 1503              	.L102:
 1504              		.loc 1 691 37 is_stmt 1 discriminator 1 view .LVU467
 1505              		.loc 1 691 9 is_stmt 0 discriminator 1 view .LVU468
 1506 0024 94B1     		cbz	r4, .L109
 692:Middlewares/Third_Party/CANopenNode_STM32/CO_driver_STM32.c ****             /* Try to send message */
 693:Middlewares/Third_Party/CANopenNode_STM32/CO_driver_STM32.c ****             if (buffer->bufferFull) {
 1507              		.loc 1 693 13 is_stmt 1 view .LVU469
 1508              		.loc 1 693 23 is_stmt 0 view .LVU470
 1509 0026 2B69     		ldr	r3, [r5, #16]
 1510              		.loc 1 693 16 view .LVU471
 1511 0028 002B     		cmp	r3, #0
 1512 002a F8D0     		beq	.L103
 694:Middlewares/Third_Party/CANopenNode_STM32/CO_driver_STM32.c ****                 if (prv_send_can_message(CANmodule, buffer)) {
 1513              		.loc 1 694 17 is_stmt 1 view .LVU472
 1514              		.loc 1 694 21 is_stmt 0 view .LVU473
 1515 002c 2946     		mov	r1, r5
 1516 002e 3046     		mov	r0, r6
 1517 0030 FFF7FEFF 		bl	prv_send_can_message
 1518              	.LVL136:
 1519              		.loc 1 694 20 view .LVU474
 1520 0034 0028     		cmp	r0, #0
 1521 0036 F2D0     		beq	.L103
 695:Middlewares/Third_Party/CANopenNode_STM32/CO_driver_STM32.c ****                     buffer->bufferFull = false;
 1522              		.loc 1 695 21 is_stmt 1 view .LVU475
 1523              		.loc 1 695 40 is_stmt 0 view .LVU476
 1524 0038 0023     		movs	r3, #0
 1525 003a 2B61     		str	r3, [r5, #16]
 696:Middlewares/Third_Party/CANopenNode_STM32/CO_driver_STM32.c ****                     CANmodule->CANtxCount--;
 1526              		.loc 1 696 21 is_stmt 1 view .LVU477
 1527              		.loc 1 696 30 is_stmt 0 view .LVU478
 1528 003c B38C     		ldrh	r3, [r6, #36]
 1529 003e 9BB2     		uxth	r3, r3
 1530              		.loc 1 696 42 view .LVU479
 1531 0040 013B     		subs	r3, r3, #1
 1532 0042 9BB2     		uxth	r3, r3
 1533 0044 B384     		strh	r3, [r6, #36]	@ movhi
 697:Middlewares/Third_Party/CANopenNode_STM32/CO_driver_STM32.c ****                     CANmodule->bufferInhibitFlag = buffer->syncFlag;
 1534              		.loc 1 697 21 is_stmt 1 view .LVU480
 1535              		.loc 1 697 58 is_stmt 0 view .LVU481
 1536 0046 6B69     		ldr	r3, [r5, #20]
 1537              		.loc 1 697 50 view .LVU482
 1538 0048 F361     		str	r3, [r6, #28]
 1539 004a E8E7     		b	.L103
 1540              	.L109:
 698:Middlewares/Third_Party/CANopenNode_STM32/CO_driver_STM32.c ****                 }
 699:Middlewares/Third_Party/CANopenNode_STM32/CO_driver_STM32.c ****             }
 700:Middlewares/Third_Party/CANopenNode_STM32/CO_driver_STM32.c ****         }
 701:Middlewares/Third_Party/CANopenNode_STM32/CO_driver_STM32.c ****         /* Clear counter if no more messages */
 702:Middlewares/Third_Party/CANopenNode_STM32/CO_driver_STM32.c ****         if (i == 0U) {
 1541              		.loc 1 702 9 is_stmt 1 view .LVU483
 703:Middlewares/Third_Party/CANopenNode_STM32/CO_driver_STM32.c ****             CANmodule->CANtxCount = 0U;
 1542              		.loc 1 703 13 view .LVU484
 1543              		.loc 1 703 35 is_stmt 0 view .LVU485
ARM GAS  C:\Users\walker\AppData\Local\Temp\ccWw4LAW.s 			page 54


 1544 004c 0023     		movs	r3, #0
 1545 004e B384     		strh	r3, [r6, #36]	@ movhi
 704:Middlewares/Third_Party/CANopenNode_STM32/CO_driver_STM32.c ****         }
 705:Middlewares/Third_Party/CANopenNode_STM32/CO_driver_STM32.c ****         CO_UNLOCK_CAN_SEND(CANmodule);
 1546              		.loc 1 705 9 is_stmt 1 view .LVU486
 1547 0050 F36A     		ldr	r3, [r6, #44]
 1548              	.LVL137:
 1549              	.LBB47:
 1550              	.LBI47:
 412:Drivers/CMSIS/Include/cmsis_gcc.h **** {
 1551              		.loc 2 412 27 view .LVU487
 1552              	.LBB48:
 1553              		.loc 2 414 3 view .LVU488
 1554              		.syntax unified
 1555              	@ 414 "Drivers/CMSIS/Include/cmsis_gcc.h" 1
 1556 0052 83F31088 		MSR primask, r3
 1557              	@ 0 "" 2
 1558              	.LVL138:
 1559              		.loc 2 414 3 is_stmt 0 view .LVU489
 1560              		.thumb
 1561              		.syntax unified
 1562              	.LBE48:
 1563              	.LBE47:
 1564              	.LBE42:
 706:Middlewares/Third_Party/CANopenNode_STM32/CO_driver_STM32.c ****     }
 707:Middlewares/Third_Party/CANopenNode_STM32/CO_driver_STM32.c **** }
 1565              		.loc 1 707 1 view .LVU490
 1566 0056 70BD     		pop	{r4, r5, r6, pc}
 1567              	.LVL139:
 1568              	.L106:
 1569              	.LCFI27:
 1570              		.cfi_def_cfa_offset 0
 1571              		.cfi_restore 4
 1572              		.cfi_restore 5
 1573              		.cfi_restore 6
 1574              		.cfi_restore 14
 1575              		.loc 1 707 1 view .LVU491
 1576 0058 7047     		bx	lr
 1577              		.cfi_endproc
 1578              	.LFE177:
 1580              		.section	.text.HAL_CAN_TxMailbox0CompleteCallback,"ax",%progbits
 1581              		.align	1
 1582              		.global	HAL_CAN_TxMailbox0CompleteCallback
 1583              		.syntax unified
 1584              		.thumb
 1585              		.thumb_func
 1587              	HAL_CAN_TxMailbox0CompleteCallback:
 1588              	.LVL140:
 1589              	.LFB178:
 708:Middlewares/Third_Party/CANopenNode_STM32/CO_driver_STM32.c **** 
 709:Middlewares/Third_Party/CANopenNode_STM32/CO_driver_STM32.c **** void
 710:Middlewares/Third_Party/CANopenNode_STM32/CO_driver_STM32.c **** HAL_CAN_TxMailbox0CompleteCallback(CAN_HandleTypeDef* hcan) {
 1590              		.loc 1 710 61 is_stmt 1 view -0
 1591              		.cfi_startproc
 1592              		@ args = 0, pretend = 0, frame = 0
 1593              		@ frame_needed = 0, uses_anonymous_args = 0
 1594              		.loc 1 710 61 is_stmt 0 view .LVU493
ARM GAS  C:\Users\walker\AppData\Local\Temp\ccWw4LAW.s 			page 55


 1595 0000 08B5     		push	{r3, lr}
 1596              	.LCFI28:
 1597              		.cfi_def_cfa_offset 8
 1598              		.cfi_offset 3, -8
 1599              		.cfi_offset 14, -4
 711:Middlewares/Third_Party/CANopenNode_STM32/CO_driver_STM32.c ****     CO_CANinterrupt_TX(CANModule_local, CAN_TX_MAILBOX0);
 1600              		.loc 1 711 5 is_stmt 1 view .LVU494
 1601 0002 0121     		movs	r1, #1
 1602 0004 024B     		ldr	r3, .L112
 1603 0006 1868     		ldr	r0, [r3]
 1604              	.LVL141:
 1605              		.loc 1 711 5 is_stmt 0 view .LVU495
 1606 0008 FFF7FEFF 		bl	CO_CANinterrupt_TX
 1607              	.LVL142:
 712:Middlewares/Third_Party/CANopenNode_STM32/CO_driver_STM32.c **** }
 1608              		.loc 1 712 1 view .LVU496
 1609 000c 08BD     		pop	{r3, pc}
 1610              	.L113:
 1611 000e 00BF     		.align	2
 1612              	.L112:
 1613 0010 00000000 		.word	.LANCHOR2
 1614              		.cfi_endproc
 1615              	.LFE178:
 1617              		.section	.text.HAL_CAN_TxMailbox1CompleteCallback,"ax",%progbits
 1618              		.align	1
 1619              		.global	HAL_CAN_TxMailbox1CompleteCallback
 1620              		.syntax unified
 1621              		.thumb
 1622              		.thumb_func
 1624              	HAL_CAN_TxMailbox1CompleteCallback:
 1625              	.LVL143:
 1626              	.LFB179:
 713:Middlewares/Third_Party/CANopenNode_STM32/CO_driver_STM32.c **** 
 714:Middlewares/Third_Party/CANopenNode_STM32/CO_driver_STM32.c **** void
 715:Middlewares/Third_Party/CANopenNode_STM32/CO_driver_STM32.c **** HAL_CAN_TxMailbox1CompleteCallback(CAN_HandleTypeDef* hcan) {
 1627              		.loc 1 715 61 is_stmt 1 view -0
 1628              		.cfi_startproc
 1629              		@ args = 0, pretend = 0, frame = 0
 1630              		@ frame_needed = 0, uses_anonymous_args = 0
 1631              		.loc 1 715 61 is_stmt 0 view .LVU498
 1632 0000 08B5     		push	{r3, lr}
 1633              	.LCFI29:
 1634              		.cfi_def_cfa_offset 8
 1635              		.cfi_offset 3, -8
 1636              		.cfi_offset 14, -4
 716:Middlewares/Third_Party/CANopenNode_STM32/CO_driver_STM32.c ****     CO_CANinterrupt_TX(CANModule_local, CAN_TX_MAILBOX0);
 1637              		.loc 1 716 5 is_stmt 1 view .LVU499
 1638 0002 0121     		movs	r1, #1
 1639 0004 024B     		ldr	r3, .L116
 1640 0006 1868     		ldr	r0, [r3]
 1641              	.LVL144:
 1642              		.loc 1 716 5 is_stmt 0 view .LVU500
 1643 0008 FFF7FEFF 		bl	CO_CANinterrupt_TX
 1644              	.LVL145:
 717:Middlewares/Third_Party/CANopenNode_STM32/CO_driver_STM32.c **** }
 1645              		.loc 1 717 1 view .LVU501
 1646 000c 08BD     		pop	{r3, pc}
ARM GAS  C:\Users\walker\AppData\Local\Temp\ccWw4LAW.s 			page 56


 1647              	.L117:
 1648 000e 00BF     		.align	2
 1649              	.L116:
 1650 0010 00000000 		.word	.LANCHOR2
 1651              		.cfi_endproc
 1652              	.LFE179:
 1654              		.section	.text.HAL_CAN_TxMailbox2CompleteCallback,"ax",%progbits
 1655              		.align	1
 1656              		.global	HAL_CAN_TxMailbox2CompleteCallback
 1657              		.syntax unified
 1658              		.thumb
 1659              		.thumb_func
 1661              	HAL_CAN_TxMailbox2CompleteCallback:
 1662              	.LVL146:
 1663              	.LFB180:
 718:Middlewares/Third_Party/CANopenNode_STM32/CO_driver_STM32.c **** 
 719:Middlewares/Third_Party/CANopenNode_STM32/CO_driver_STM32.c **** void
 720:Middlewares/Third_Party/CANopenNode_STM32/CO_driver_STM32.c **** HAL_CAN_TxMailbox2CompleteCallback(CAN_HandleTypeDef* hcan) {
 1664              		.loc 1 720 61 is_stmt 1 view -0
 1665              		.cfi_startproc
 1666              		@ args = 0, pretend = 0, frame = 0
 1667              		@ frame_needed = 0, uses_anonymous_args = 0
 1668              		.loc 1 720 61 is_stmt 0 view .LVU503
 1669 0000 08B5     		push	{r3, lr}
 1670              	.LCFI30:
 1671              		.cfi_def_cfa_offset 8
 1672              		.cfi_offset 3, -8
 1673              		.cfi_offset 14, -4
 721:Middlewares/Third_Party/CANopenNode_STM32/CO_driver_STM32.c ****     CO_CANinterrupt_TX(CANModule_local, CAN_TX_MAILBOX0);
 1674              		.loc 1 721 5 is_stmt 1 view .LVU504
 1675 0002 0121     		movs	r1, #1
 1676 0004 024B     		ldr	r3, .L120
 1677 0006 1868     		ldr	r0, [r3]
 1678              	.LVL147:
 1679              		.loc 1 721 5 is_stmt 0 view .LVU505
 1680 0008 FFF7FEFF 		bl	CO_CANinterrupt_TX
 1681              	.LVL148:
 722:Middlewares/Third_Party/CANopenNode_STM32/CO_driver_STM32.c **** }
 1682              		.loc 1 722 1 view .LVU506
 1683 000c 08BD     		pop	{r3, pc}
 1684              	.L121:
 1685 000e 00BF     		.align	2
 1686              	.L120:
 1687 0010 00000000 		.word	.LANCHOR2
 1688              		.cfi_endproc
 1689              	.LFE180:
 1691              		.section	.bss.CANModule_local,"aw",%nobits
 1692              		.align	2
 1693              		.set	.LANCHOR2,. + 0
 1696              	CANModule_local:
 1697 0000 00000000 		.space	4
 1698              		.section	.bss.rx_hdr.0,"aw",%nobits
 1699              		.align	2
 1700              		.set	.LANCHOR1,. + 0
 1703              	rx_hdr.0:
 1704 0000 00000000 		.space	28
 1704      00000000 
ARM GAS  C:\Users\walker\AppData\Local\Temp\ccWw4LAW.s 			page 57


 1704      00000000 
 1704      00000000 
 1704      00000000 
 1705              		.section	.bss.tx_hdr.1,"aw",%nobits
 1706              		.align	2
 1707              		.set	.LANCHOR0,. + 0
 1710              	tx_hdr.1:
 1711 0000 00000000 		.space	24
 1711      00000000 
 1711      00000000 
 1711      00000000 
 1711      00000000 
 1712              		.text
 1713              	.Letext0:
 1714              		.file 3 "c:\\program files (x86)\\gnu arm embedded toolchain\\10 2021.10\\arm-none-eabi\\include\\
 1715              		.file 4 "c:\\program files (x86)\\gnu arm embedded toolchain\\10 2021.10\\arm-none-eabi\\include\\
 1716              		.file 5 "c:\\program files (x86)\\gnu arm embedded toolchain\\10 2021.10\\arm-none-eabi\\include\\
 1717              		.file 6 "Drivers/CMSIS/Device/ST/STM32F3xx/Include/stm32f303x8.h"
 1718              		.file 7 "Drivers/CMSIS/Device/ST/STM32F3xx/Include/stm32f3xx.h"
 1719              		.file 8 "Drivers/STM32F3xx_HAL_Driver/Inc/stm32f3xx_hal_def.h"
 1720              		.file 9 "Drivers/STM32F3xx_HAL_Driver/Inc/stm32f3xx_hal_dma.h"
 1721              		.file 10 "Drivers/STM32F3xx_HAL_Driver/Inc/stm32f3xx_hal_can.h"
 1722              		.file 11 "Drivers/STM32F3xx_HAL_Driver/Inc/stm32f3xx_hal_tim.h"
 1723              		.file 12 "Middlewares/Third_Party/CANopenNode_STM32/CO_driver_target.h"
 1724              		.file 13 "Middlewares/Third_Party/CANopenNode/301/CO_driver.h"
 1725              		.file 14 "Middlewares/Third_Party/CANopenNode/301/CO_ODinterface.h"
 1726              		.file 15 "Middlewares/Third_Party/CANopenNode/301/CO_Emergency.h"
 1727              		.file 16 "Middlewares/Third_Party/CANopenNode/301/CO_NMT_Heartbeat.h"
 1728              		.file 17 "Middlewares/Third_Party/CANopenNode/301/CO_HBconsumer.h"
 1729              		.file 18 "Middlewares/Third_Party/CANopenNode/301/CO_SDOserver.h"
 1730              		.file 19 "Middlewares/Third_Party/CANopenNode/301/CO_SYNC.h"
 1731              		.file 20 "Middlewares/Third_Party/CANopenNode/301/CO_PDO.h"
 1732              		.file 21 "Middlewares/Third_Party/CANopenNode/301/CO_TIME.h"
 1733              		.file 22 "Middlewares/Third_Party/CANopenNode/303/CO_LEDs.h"
 1734              		.file 23 "Middlewares/Third_Party/CANopenNode/305/CO_LSS.h"
 1735              		.file 24 "Middlewares/Third_Party/CANopenNode/305/CO_LSSslave.h"
 1736              		.file 25 "Middlewares/Third_Party/CANopenNode/CANopen.h"
 1737              		.file 26 "Middlewares/Third_Party/CANopenNode_STM32/CO_app_STM32.h"
ARM GAS  C:\Users\walker\AppData\Local\Temp\ccWw4LAW.s 			page 58

