ARM GAS  C:\Users\walker\AppData\Local\Temp\ccbkesbg.s 			page 1


   1              		.cpu cortex-m4
   2              		.arch armv7e-m
   3              		.fpu fpv4-sp-d16
   4              		.eabi_attribute 27, 1
   5              		.eabi_attribute 28, 1
   6              		.eabi_attribute 20, 1
   7              		.eabi_attribute 21, 1
   8              		.eabi_attribute 23, 3
   9              		.eabi_attribute 24, 1
  10              		.eabi_attribute 25, 1
  11              		.eabi_attribute 26, 1
  12              		.eabi_attribute 30, 1
  13              		.eabi_attribute 34, 1
  14              		.eabi_attribute 18, 4
  15              		.file	"CO_HBconsumer.c"
  16              		.text
  17              	.Ltext0:
  18              		.cfi_sections	.debug_frame
  19              		.section	.text.CO_HBcons_receive,"ax",%progbits
  20              		.align	1
  21              		.syntax unified
  22              		.thumb
  23              		.thumb_func
  25              	CO_HBcons_receive:
  26              	.LVL0:
  27              	.LFB160:
  28              		.file 1 "Middlewares/Third_Party/CANopenNode/301/CO_HBconsumer.c"
   1:Middlewares/Third_Party/CANopenNode/301/CO_HBconsumer.c **** /*
   2:Middlewares/Third_Party/CANopenNode/301/CO_HBconsumer.c ****  * CANopen Heartbeat consumer object.
   3:Middlewares/Third_Party/CANopenNode/301/CO_HBconsumer.c ****  *
   4:Middlewares/Third_Party/CANopenNode/301/CO_HBconsumer.c ****  * @file        CO_HBconsumer.c
   5:Middlewares/Third_Party/CANopenNode/301/CO_HBconsumer.c ****  * @ingroup     CO_HBconsumer
   6:Middlewares/Third_Party/CANopenNode/301/CO_HBconsumer.c ****  * @author      Janez Paternoster
   7:Middlewares/Third_Party/CANopenNode/301/CO_HBconsumer.c ****  * @copyright   2021 Janez Paternoster
   8:Middlewares/Third_Party/CANopenNode/301/CO_HBconsumer.c ****  *
   9:Middlewares/Third_Party/CANopenNode/301/CO_HBconsumer.c ****  * This file is part of CANopenNode, an opensource CANopen Stack.
  10:Middlewares/Third_Party/CANopenNode/301/CO_HBconsumer.c ****  * Project home page is <https://github.com/CANopenNode/CANopenNode>.
  11:Middlewares/Third_Party/CANopenNode/301/CO_HBconsumer.c ****  * For more information on CANopen see <http://www.can-cia.org/>.
  12:Middlewares/Third_Party/CANopenNode/301/CO_HBconsumer.c ****  *
  13:Middlewares/Third_Party/CANopenNode/301/CO_HBconsumer.c ****  * Licensed under the Apache License, Version 2.0 (the "License");
  14:Middlewares/Third_Party/CANopenNode/301/CO_HBconsumer.c ****  * you may not use this file except in compliance with the License.
  15:Middlewares/Third_Party/CANopenNode/301/CO_HBconsumer.c ****  * You may obtain a copy of the License at
  16:Middlewares/Third_Party/CANopenNode/301/CO_HBconsumer.c ****  *
  17:Middlewares/Third_Party/CANopenNode/301/CO_HBconsumer.c ****  *     http://www.apache.org/licenses/LICENSE-2.0
  18:Middlewares/Third_Party/CANopenNode/301/CO_HBconsumer.c ****  *
  19:Middlewares/Third_Party/CANopenNode/301/CO_HBconsumer.c ****  * Unless required by applicable law or agreed to in writing, software
  20:Middlewares/Third_Party/CANopenNode/301/CO_HBconsumer.c ****  * distributed under the License is distributed on an "AS IS" BASIS,
  21:Middlewares/Third_Party/CANopenNode/301/CO_HBconsumer.c ****  * WITHOUT WARRANTIES OR CONDITIONS OF ANY KIND, either express or implied.
  22:Middlewares/Third_Party/CANopenNode/301/CO_HBconsumer.c ****  * See the License for the specific language governing permissions and
  23:Middlewares/Third_Party/CANopenNode/301/CO_HBconsumer.c ****  * limitations under the License.
  24:Middlewares/Third_Party/CANopenNode/301/CO_HBconsumer.c ****  */
  25:Middlewares/Third_Party/CANopenNode/301/CO_HBconsumer.c **** 
  26:Middlewares/Third_Party/CANopenNode/301/CO_HBconsumer.c **** #include "301/CO_HBconsumer.h"
  27:Middlewares/Third_Party/CANopenNode/301/CO_HBconsumer.c **** 
  28:Middlewares/Third_Party/CANopenNode/301/CO_HBconsumer.c **** #if (CO_CONFIG_HB_CONS) & CO_CONFIG_HB_CONS_ENABLE
  29:Middlewares/Third_Party/CANopenNode/301/CO_HBconsumer.c **** 
  30:Middlewares/Third_Party/CANopenNode/301/CO_HBconsumer.c **** /* Verify HB consumer configuration *******************************************/
ARM GAS  C:\Users\walker\AppData\Local\Temp\ccbkesbg.s 			page 2


  31:Middlewares/Third_Party/CANopenNode/301/CO_HBconsumer.c **** #if (CO_CONFIG_HB_CONS) & CO_CONFIG_HB_CONS_CALLBACK_CHANGE \
  32:Middlewares/Third_Party/CANopenNode/301/CO_HBconsumer.c ****     && (CO_CONFIG_HB_CONS) & CO_CONFIG_HB_CONS_CALLBACK_MULTI
  33:Middlewares/Third_Party/CANopenNode/301/CO_HBconsumer.c **** #error CO_CONFIG_HB_CONS_CALLBACK_CHANGE and CO_CONFIG_HB_CONS_CALLBACK_MULTI cannot be set simulta
  34:Middlewares/Third_Party/CANopenNode/301/CO_HBconsumer.c **** #endif
  35:Middlewares/Third_Party/CANopenNode/301/CO_HBconsumer.c **** 
  36:Middlewares/Third_Party/CANopenNode/301/CO_HBconsumer.c **** /*
  37:Middlewares/Third_Party/CANopenNode/301/CO_HBconsumer.c ****  * Read received message from CAN module.
  38:Middlewares/Third_Party/CANopenNode/301/CO_HBconsumer.c ****  *
  39:Middlewares/Third_Party/CANopenNode/301/CO_HBconsumer.c ****  * Function will be called (by CAN receive interrupt) every time, when CAN
  40:Middlewares/Third_Party/CANopenNode/301/CO_HBconsumer.c ****  * message with correct identifier will be received. For more information and
  41:Middlewares/Third_Party/CANopenNode/301/CO_HBconsumer.c ****  * description of parameters see file CO_driver.h.
  42:Middlewares/Third_Party/CANopenNode/301/CO_HBconsumer.c ****  */
  43:Middlewares/Third_Party/CANopenNode/301/CO_HBconsumer.c **** static void CO_HBcons_receive(void *object, void *msg) {
  29              		.loc 1 43 56 view -0
  30              		.cfi_startproc
  31              		@ args = 0, pretend = 0, frame = 0
  32              		@ frame_needed = 0, uses_anonymous_args = 0
  33              		@ link register save eliminated.
  44:Middlewares/Third_Party/CANopenNode/301/CO_HBconsumer.c ****     CO_HBconsNode_t *HBconsNode = object;
  34              		.loc 1 44 5 view .LVU1
  45:Middlewares/Third_Party/CANopenNode/301/CO_HBconsumer.c ****     uint8_t DLC = CO_CANrxMsg_readDLC(msg);
  35              		.loc 1 45 5 view .LVU2
  36              		.loc 1 45 13 is_stmt 0 view .LVU3
  37 0000 0B79     		ldrb	r3, [r1, #4]	@ zero_extendqisi2
  38              	.LVL1:
  46:Middlewares/Third_Party/CANopenNode/301/CO_HBconsumer.c ****     uint8_t *data = CO_CANrxMsg_readData(msg);
  39              		.loc 1 46 5 is_stmt 1 view .LVU4
  47:Middlewares/Third_Party/CANopenNode/301/CO_HBconsumer.c **** 
  48:Middlewares/Third_Party/CANopenNode/301/CO_HBconsumer.c ****     if (DLC == 1) {
  40              		.loc 1 48 5 view .LVU5
  41              		.loc 1 48 8 is_stmt 0 view .LVU6
  42 0002 012B     		cmp	r3, #1
  43 0004 00D0     		beq	.L3
  44              	.LVL2:
  45              	.L1:
  49:Middlewares/Third_Party/CANopenNode/301/CO_HBconsumer.c ****         /* copy data and set 'new message' flag. */
  50:Middlewares/Third_Party/CANopenNode/301/CO_HBconsumer.c ****         HBconsNode->NMTstate = (CO_NMT_internalState_t)data[0];
  51:Middlewares/Third_Party/CANopenNode/301/CO_HBconsumer.c ****         CO_FLAG_SET(HBconsNode->CANrxNew);
  52:Middlewares/Third_Party/CANopenNode/301/CO_HBconsumer.c **** #if (CO_CONFIG_HB_CONS) & CO_CONFIG_FLAG_CALLBACK_PRE
  53:Middlewares/Third_Party/CANopenNode/301/CO_HBconsumer.c ****         /* Optional signal to RTOS, which can resume task, which handles HBcons. */
  54:Middlewares/Third_Party/CANopenNode/301/CO_HBconsumer.c ****         if (HBconsNode->pFunctSignalPre != NULL) {
  55:Middlewares/Third_Party/CANopenNode/301/CO_HBconsumer.c ****             HBconsNode->pFunctSignalPre(HBconsNode->functSignalObjectPre);
  56:Middlewares/Third_Party/CANopenNode/301/CO_HBconsumer.c ****         }
  57:Middlewares/Third_Party/CANopenNode/301/CO_HBconsumer.c **** #endif
  58:Middlewares/Third_Party/CANopenNode/301/CO_HBconsumer.c ****     }
  59:Middlewares/Third_Party/CANopenNode/301/CO_HBconsumer.c **** }
  46              		.loc 1 59 1 view .LVU7
  47 0006 7047     		bx	lr
  48              	.LVL3:
  49              	.L3:
  50:Middlewares/Third_Party/CANopenNode/301/CO_HBconsumer.c ****         CO_FLAG_SET(HBconsNode->CANrxNew);
  50              		.loc 1 50 9 is_stmt 1 view .LVU8
  50:Middlewares/Third_Party/CANopenNode/301/CO_HBconsumer.c ****         CO_FLAG_SET(HBconsNode->CANrxNew);
  51              		.loc 1 50 32 is_stmt 0 view .LVU9
  52 0008 91F90530 		ldrsb	r3, [r1, #5]
  53              	.LVL4:
  50:Middlewares/Third_Party/CANopenNode/301/CO_HBconsumer.c ****         CO_FLAG_SET(HBconsNode->CANrxNew);
ARM GAS  C:\Users\walker\AppData\Local\Temp\ccbkesbg.s 			page 3


  54              		.loc 1 50 30 view .LVU10
  55 000c 4370     		strb	r3, [r0, #1]
  56              	.LVL5:
  51:Middlewares/Third_Party/CANopenNode/301/CO_HBconsumer.c **** #if (CO_CONFIG_HB_CONS) & CO_CONFIG_FLAG_CALLBACK_PRE
  57              		.loc 1 51 9 is_stmt 1 view .LVU11
  51:Middlewares/Third_Party/CANopenNode/301/CO_HBconsumer.c **** #if (CO_CONFIG_HB_CONS) & CO_CONFIG_FLAG_CALLBACK_PRE
  58              		.loc 1 51 9 view .LVU12
  51:Middlewares/Third_Party/CANopenNode/301/CO_HBconsumer.c **** #if (CO_CONFIG_HB_CONS) & CO_CONFIG_FLAG_CALLBACK_PRE
  59              		.loc 1 51 9 view .LVU13
  60 000e 0123     		movs	r3, #1
  61 0010 C360     		str	r3, [r0, #12]
  51:Middlewares/Third_Party/CANopenNode/301/CO_HBconsumer.c **** #if (CO_CONFIG_HB_CONS) & CO_CONFIG_FLAG_CALLBACK_PRE
  62              		.loc 1 51 9 view .LVU14
  63              		.loc 1 59 1 is_stmt 0 view .LVU15
  64 0012 F8E7     		b	.L1
  65              		.cfi_endproc
  66              	.LFE160:
  68              		.section	.text.CO_HBconsumer_initEntry,"ax",%progbits
  69              		.align	1
  70              		.syntax unified
  71              		.thumb
  72              		.thumb_func
  74              	CO_HBconsumer_initEntry:
  75              	.LVL6:
  76              	.LFB163:
  60:Middlewares/Third_Party/CANopenNode/301/CO_HBconsumer.c **** 
  61:Middlewares/Third_Party/CANopenNode/301/CO_HBconsumer.c **** 
  62:Middlewares/Third_Party/CANopenNode/301/CO_HBconsumer.c **** /*
  63:Middlewares/Third_Party/CANopenNode/301/CO_HBconsumer.c ****  * Initialize one Heartbeat consumer entry
  64:Middlewares/Third_Party/CANopenNode/301/CO_HBconsumer.c ****  *
  65:Middlewares/Third_Party/CANopenNode/301/CO_HBconsumer.c ****  * This function is called from the @ref CO_HBconsumer_init() or when writing
  66:Middlewares/Third_Party/CANopenNode/301/CO_HBconsumer.c ****  * to OD entry 1016.
  67:Middlewares/Third_Party/CANopenNode/301/CO_HBconsumer.c ****  *
  68:Middlewares/Third_Party/CANopenNode/301/CO_HBconsumer.c ****  * @param HBcons This object.
  69:Middlewares/Third_Party/CANopenNode/301/CO_HBconsumer.c ****  * @param idx index of the node in HBcons object
  70:Middlewares/Third_Party/CANopenNode/301/CO_HBconsumer.c ****  * @param nodeId see OD 0x1016 description
  71:Middlewares/Third_Party/CANopenNode/301/CO_HBconsumer.c ****  * @param consumerTime_ms in milliseconds. see OD 0x1016 description
  72:Middlewares/Third_Party/CANopenNode/301/CO_HBconsumer.c ****  * @return
  73:Middlewares/Third_Party/CANopenNode/301/CO_HBconsumer.c ****  */
  74:Middlewares/Third_Party/CANopenNode/301/CO_HBconsumer.c **** static CO_ReturnError_t CO_HBconsumer_initEntry(CO_HBconsumer_t *HBcons,
  75:Middlewares/Third_Party/CANopenNode/301/CO_HBconsumer.c ****                                                 uint8_t idx,
  76:Middlewares/Third_Party/CANopenNode/301/CO_HBconsumer.c ****                                                 uint8_t nodeId,
  77:Middlewares/Third_Party/CANopenNode/301/CO_HBconsumer.c ****                                                 uint16_t consumerTime_ms);
  78:Middlewares/Third_Party/CANopenNode/301/CO_HBconsumer.c **** 
  79:Middlewares/Third_Party/CANopenNode/301/CO_HBconsumer.c **** 
  80:Middlewares/Third_Party/CANopenNode/301/CO_HBconsumer.c **** #if (CO_CONFIG_HB_CONS) & CO_CONFIG_FLAG_OD_DYNAMIC
  81:Middlewares/Third_Party/CANopenNode/301/CO_HBconsumer.c **** /*
  82:Middlewares/Third_Party/CANopenNode/301/CO_HBconsumer.c ****  * Custom function for writing OD object "Consumer heartbeat time"
  83:Middlewares/Third_Party/CANopenNode/301/CO_HBconsumer.c ****  *
  84:Middlewares/Third_Party/CANopenNode/301/CO_HBconsumer.c ****  * For more information see file CO_ODinterface.h, OD_IO_t.
  85:Middlewares/Third_Party/CANopenNode/301/CO_HBconsumer.c ****  */
  86:Middlewares/Third_Party/CANopenNode/301/CO_HBconsumer.c **** static ODR_t OD_write_1016(OD_stream_t *stream, const void *buf,
  87:Middlewares/Third_Party/CANopenNode/301/CO_HBconsumer.c ****                            OD_size_t count, OD_size_t *countWritten)
  88:Middlewares/Third_Party/CANopenNode/301/CO_HBconsumer.c **** {
  89:Middlewares/Third_Party/CANopenNode/301/CO_HBconsumer.c ****     CO_HBconsumer_t *HBcons = stream->object;
  90:Middlewares/Third_Party/CANopenNode/301/CO_HBconsumer.c **** 
  91:Middlewares/Third_Party/CANopenNode/301/CO_HBconsumer.c ****     if (stream == NULL || buf == NULL
ARM GAS  C:\Users\walker\AppData\Local\Temp\ccbkesbg.s 			page 4


  92:Middlewares/Third_Party/CANopenNode/301/CO_HBconsumer.c ****         || stream->subIndex < 1
  93:Middlewares/Third_Party/CANopenNode/301/CO_HBconsumer.c ****         || stream->subIndex > HBcons->numberOfMonitoredNodes
  94:Middlewares/Third_Party/CANopenNode/301/CO_HBconsumer.c ****         || count != sizeof(uint32_t) || countWritten == NULL
  95:Middlewares/Third_Party/CANopenNode/301/CO_HBconsumer.c ****     ) {
  96:Middlewares/Third_Party/CANopenNode/301/CO_HBconsumer.c ****         return ODR_DEV_INCOMPAT;
  97:Middlewares/Third_Party/CANopenNode/301/CO_HBconsumer.c ****     }
  98:Middlewares/Third_Party/CANopenNode/301/CO_HBconsumer.c **** 
  99:Middlewares/Third_Party/CANopenNode/301/CO_HBconsumer.c ****     uint32_t val = CO_getUint32(buf);
 100:Middlewares/Third_Party/CANopenNode/301/CO_HBconsumer.c ****     uint8_t nodeId = (val >> 16) & 0xFF;
 101:Middlewares/Third_Party/CANopenNode/301/CO_HBconsumer.c ****     uint16_t time = val & 0xFFFF;
 102:Middlewares/Third_Party/CANopenNode/301/CO_HBconsumer.c ****     CO_ReturnError_t ret = CO_HBconsumer_initEntry(HBcons, stream->subIndex - 1,
 103:Middlewares/Third_Party/CANopenNode/301/CO_HBconsumer.c ****                                                    nodeId, time);
 104:Middlewares/Third_Party/CANopenNode/301/CO_HBconsumer.c ****     if (ret != CO_ERROR_NO) {
 105:Middlewares/Third_Party/CANopenNode/301/CO_HBconsumer.c ****         return ODR_PAR_INCOMPAT;
 106:Middlewares/Third_Party/CANopenNode/301/CO_HBconsumer.c ****     }
 107:Middlewares/Third_Party/CANopenNode/301/CO_HBconsumer.c **** 
 108:Middlewares/Third_Party/CANopenNode/301/CO_HBconsumer.c ****     /* write value to the original location in the Object Dictionary */
 109:Middlewares/Third_Party/CANopenNode/301/CO_HBconsumer.c ****     return OD_writeOriginal(stream, buf, count, countWritten);
 110:Middlewares/Third_Party/CANopenNode/301/CO_HBconsumer.c **** }
 111:Middlewares/Third_Party/CANopenNode/301/CO_HBconsumer.c **** #endif
 112:Middlewares/Third_Party/CANopenNode/301/CO_HBconsumer.c **** 
 113:Middlewares/Third_Party/CANopenNode/301/CO_HBconsumer.c **** 
 114:Middlewares/Third_Party/CANopenNode/301/CO_HBconsumer.c **** /******************************************************************************/
 115:Middlewares/Third_Party/CANopenNode/301/CO_HBconsumer.c **** CO_ReturnError_t CO_HBconsumer_init(CO_HBconsumer_t *HBcons,
 116:Middlewares/Third_Party/CANopenNode/301/CO_HBconsumer.c ****                                     CO_EM_t *em,
 117:Middlewares/Third_Party/CANopenNode/301/CO_HBconsumer.c ****                                     CO_HBconsNode_t *monitoredNodes,
 118:Middlewares/Third_Party/CANopenNode/301/CO_HBconsumer.c ****                                     uint8_t monitoredNodesCount,
 119:Middlewares/Third_Party/CANopenNode/301/CO_HBconsumer.c ****                                     OD_entry_t *OD_1016_HBcons,
 120:Middlewares/Third_Party/CANopenNode/301/CO_HBconsumer.c ****                                     CO_CANmodule_t *CANdevRx,
 121:Middlewares/Third_Party/CANopenNode/301/CO_HBconsumer.c ****                                     uint16_t CANdevRxIdxStart,
 122:Middlewares/Third_Party/CANopenNode/301/CO_HBconsumer.c ****                                     uint32_t *errInfo)
 123:Middlewares/Third_Party/CANopenNode/301/CO_HBconsumer.c **** {
 124:Middlewares/Third_Party/CANopenNode/301/CO_HBconsumer.c ****     ODR_t odRet;
 125:Middlewares/Third_Party/CANopenNode/301/CO_HBconsumer.c **** 
 126:Middlewares/Third_Party/CANopenNode/301/CO_HBconsumer.c ****     /* verify arguments */
 127:Middlewares/Third_Party/CANopenNode/301/CO_HBconsumer.c ****     if (HBcons == NULL || em == NULL || monitoredNodes == NULL
 128:Middlewares/Third_Party/CANopenNode/301/CO_HBconsumer.c ****         || OD_1016_HBcons == NULL || CANdevRx == NULL
 129:Middlewares/Third_Party/CANopenNode/301/CO_HBconsumer.c ****     ) {
 130:Middlewares/Third_Party/CANopenNode/301/CO_HBconsumer.c ****         return CO_ERROR_ILLEGAL_ARGUMENT;
 131:Middlewares/Third_Party/CANopenNode/301/CO_HBconsumer.c ****     }
 132:Middlewares/Third_Party/CANopenNode/301/CO_HBconsumer.c **** 
 133:Middlewares/Third_Party/CANopenNode/301/CO_HBconsumer.c ****     /* Configure object variables */
 134:Middlewares/Third_Party/CANopenNode/301/CO_HBconsumer.c ****     memset(HBcons, 0, sizeof(CO_HBconsumer_t));
 135:Middlewares/Third_Party/CANopenNode/301/CO_HBconsumer.c ****     HBcons->em = em;
 136:Middlewares/Third_Party/CANopenNode/301/CO_HBconsumer.c ****     HBcons->monitoredNodes = monitoredNodes;
 137:Middlewares/Third_Party/CANopenNode/301/CO_HBconsumer.c ****     HBcons->CANdevRx = CANdevRx;
 138:Middlewares/Third_Party/CANopenNode/301/CO_HBconsumer.c ****     HBcons->CANdevRxIdxStart = CANdevRxIdxStart;
 139:Middlewares/Third_Party/CANopenNode/301/CO_HBconsumer.c **** 
 140:Middlewares/Third_Party/CANopenNode/301/CO_HBconsumer.c ****     /* get actual number of monitored nodes */
 141:Middlewares/Third_Party/CANopenNode/301/CO_HBconsumer.c ****     HBcons->numberOfMonitoredNodes =
 142:Middlewares/Third_Party/CANopenNode/301/CO_HBconsumer.c ****         OD_1016_HBcons->subEntriesCount-1 < monitoredNodesCount ?
 143:Middlewares/Third_Party/CANopenNode/301/CO_HBconsumer.c ****         OD_1016_HBcons->subEntriesCount-1 : monitoredNodesCount;
 144:Middlewares/Third_Party/CANopenNode/301/CO_HBconsumer.c **** 
 145:Middlewares/Third_Party/CANopenNode/301/CO_HBconsumer.c ****     for (uint8_t i = 0; i < HBcons->numberOfMonitoredNodes; i++) {
 146:Middlewares/Third_Party/CANopenNode/301/CO_HBconsumer.c ****         uint32_t val;
 147:Middlewares/Third_Party/CANopenNode/301/CO_HBconsumer.c ****         odRet = OD_get_u32(OD_1016_HBcons, i + 1, &val, true);
 148:Middlewares/Third_Party/CANopenNode/301/CO_HBconsumer.c ****         if (odRet != ODR_OK) {
ARM GAS  C:\Users\walker\AppData\Local\Temp\ccbkesbg.s 			page 5


 149:Middlewares/Third_Party/CANopenNode/301/CO_HBconsumer.c ****             if (errInfo != NULL) *errInfo = OD_getIndex(OD_1016_HBcons);
 150:Middlewares/Third_Party/CANopenNode/301/CO_HBconsumer.c ****             return CO_ERROR_OD_PARAMETERS;
 151:Middlewares/Third_Party/CANopenNode/301/CO_HBconsumer.c ****         }
 152:Middlewares/Third_Party/CANopenNode/301/CO_HBconsumer.c **** 
 153:Middlewares/Third_Party/CANopenNode/301/CO_HBconsumer.c ****         uint8_t nodeId = (val >> 16) & 0xFF;
 154:Middlewares/Third_Party/CANopenNode/301/CO_HBconsumer.c ****         uint16_t time = val & 0xFFFF;
 155:Middlewares/Third_Party/CANopenNode/301/CO_HBconsumer.c ****         CO_ReturnError_t ret = CO_HBconsumer_initEntry(HBcons, i, nodeId, time);
 156:Middlewares/Third_Party/CANopenNode/301/CO_HBconsumer.c ****         if (ret != CO_ERROR_NO) {
 157:Middlewares/Third_Party/CANopenNode/301/CO_HBconsumer.c ****             if (errInfo != NULL) *errInfo = OD_getIndex(OD_1016_HBcons);
 158:Middlewares/Third_Party/CANopenNode/301/CO_HBconsumer.c ****             /* don't break a program, if only value of a parameter is wrong */
 159:Middlewares/Third_Party/CANopenNode/301/CO_HBconsumer.c ****             if (ret != CO_ERROR_OD_PARAMETERS)
 160:Middlewares/Third_Party/CANopenNode/301/CO_HBconsumer.c ****                 return ret;
 161:Middlewares/Third_Party/CANopenNode/301/CO_HBconsumer.c ****         }
 162:Middlewares/Third_Party/CANopenNode/301/CO_HBconsumer.c ****     }
 163:Middlewares/Third_Party/CANopenNode/301/CO_HBconsumer.c **** 
 164:Middlewares/Third_Party/CANopenNode/301/CO_HBconsumer.c ****     /* configure extension for OD */
 165:Middlewares/Third_Party/CANopenNode/301/CO_HBconsumer.c **** #if (CO_CONFIG_HB_CONS) & CO_CONFIG_FLAG_OD_DYNAMIC
 166:Middlewares/Third_Party/CANopenNode/301/CO_HBconsumer.c ****     HBcons->OD_1016_extension.object = HBcons;
 167:Middlewares/Third_Party/CANopenNode/301/CO_HBconsumer.c ****     HBcons->OD_1016_extension.read = OD_readOriginal;
 168:Middlewares/Third_Party/CANopenNode/301/CO_HBconsumer.c ****     HBcons->OD_1016_extension.write = OD_write_1016;
 169:Middlewares/Third_Party/CANopenNode/301/CO_HBconsumer.c ****     odRet = OD_extension_init(OD_1016_HBcons, &HBcons->OD_1016_extension);
 170:Middlewares/Third_Party/CANopenNode/301/CO_HBconsumer.c ****     if (odRet != ODR_OK) {
 171:Middlewares/Third_Party/CANopenNode/301/CO_HBconsumer.c ****         if (errInfo != NULL) *errInfo = OD_getIndex(OD_1016_HBcons);
 172:Middlewares/Third_Party/CANopenNode/301/CO_HBconsumer.c ****         return CO_ERROR_OD_PARAMETERS;
 173:Middlewares/Third_Party/CANopenNode/301/CO_HBconsumer.c ****     }
 174:Middlewares/Third_Party/CANopenNode/301/CO_HBconsumer.c **** #endif
 175:Middlewares/Third_Party/CANopenNode/301/CO_HBconsumer.c **** 
 176:Middlewares/Third_Party/CANopenNode/301/CO_HBconsumer.c ****     return CO_ERROR_NO;
 177:Middlewares/Third_Party/CANopenNode/301/CO_HBconsumer.c **** }
 178:Middlewares/Third_Party/CANopenNode/301/CO_HBconsumer.c **** 
 179:Middlewares/Third_Party/CANopenNode/301/CO_HBconsumer.c **** 
 180:Middlewares/Third_Party/CANopenNode/301/CO_HBconsumer.c **** /******************************************************************************/
 181:Middlewares/Third_Party/CANopenNode/301/CO_HBconsumer.c **** static CO_ReturnError_t CO_HBconsumer_initEntry(CO_HBconsumer_t *HBcons,
 182:Middlewares/Third_Party/CANopenNode/301/CO_HBconsumer.c ****                                                 uint8_t idx,
 183:Middlewares/Third_Party/CANopenNode/301/CO_HBconsumer.c ****                                                 uint8_t nodeId,
 184:Middlewares/Third_Party/CANopenNode/301/CO_HBconsumer.c ****                                                 uint16_t consumerTime_ms)
 185:Middlewares/Third_Party/CANopenNode/301/CO_HBconsumer.c **** {
  77              		.loc 1 185 1 is_stmt 1 view -0
  78              		.cfi_startproc
  79              		@ args = 0, pretend = 0, frame = 16
  80              		@ frame_needed = 0, uses_anonymous_args = 0
  81              		.loc 1 185 1 is_stmt 0 view .LVU17
  82 0000 2DE9F043 		push	{r4, r5, r6, r7, r8, r9, lr}
  83              	.LCFI0:
  84              		.cfi_def_cfa_offset 28
  85              		.cfi_offset 4, -28
  86              		.cfi_offset 5, -24
  87              		.cfi_offset 6, -20
  88              		.cfi_offset 7, -16
  89              		.cfi_offset 8, -12
  90              		.cfi_offset 9, -8
  91              		.cfi_offset 14, -4
  92 0004 89B0     		sub	sp, sp, #36
  93              	.LCFI1:
  94              		.cfi_def_cfa_offset 64
 186:Middlewares/Third_Party/CANopenNode/301/CO_HBconsumer.c ****     CO_ReturnError_t ret = CO_ERROR_NO;
  95              		.loc 1 186 5 is_stmt 1 view .LVU18
ARM GAS  C:\Users\walker\AppData\Local\Temp\ccbkesbg.s 			page 6


  96              	.LVL7:
 187:Middlewares/Third_Party/CANopenNode/301/CO_HBconsumer.c **** 
 188:Middlewares/Third_Party/CANopenNode/301/CO_HBconsumer.c ****     /* verify arguments */
 189:Middlewares/Third_Party/CANopenNode/301/CO_HBconsumer.c ****     if (HBcons == NULL || idx >= HBcons->numberOfMonitoredNodes) {
  97              		.loc 1 189 5 view .LVU19
  98              		.loc 1 189 8 is_stmt 0 view .LVU20
  99 0006 0028     		cmp	r0, #0
 100 0008 59D0     		beq	.L12
 101 000a 0C46     		mov	r4, r1
 102 000c 1646     		mov	r6, r2
 103 000e 1F46     		mov	r7, r3
 104 0010 0546     		mov	r5, r0
 105              		.loc 1 189 40 discriminator 1 view .LVU21
 106 0012 90F80890 		ldrb	r9, [r0, #8]	@ zero_extendqisi2
 107              		.loc 1 189 24 discriminator 1 view .LVU22
 108 0016 8945     		cmp	r9, r1
 109 0018 54D9     		bls	.L13
 190:Middlewares/Third_Party/CANopenNode/301/CO_HBconsumer.c ****         return CO_ERROR_ILLEGAL_ARGUMENT;
 191:Middlewares/Third_Party/CANopenNode/301/CO_HBconsumer.c ****     }
 192:Middlewares/Third_Party/CANopenNode/301/CO_HBconsumer.c **** 
 193:Middlewares/Third_Party/CANopenNode/301/CO_HBconsumer.c ****     /* verify for duplicate entries */
 194:Middlewares/Third_Party/CANopenNode/301/CO_HBconsumer.c ****     if(consumerTime_ms != 0 && nodeId != 0) {
 110              		.loc 1 194 5 is_stmt 1 view .LVU23
 111              		.loc 1 194 7 is_stmt 0 view .LVU24
 112 001a 03B1     		cbz	r3, .L6
 113              		.loc 1 194 29 discriminator 1 view .LVU25
 114 001c 82BB     		cbnz	r2, .L14
 115              	.LVL8:
 116              	.L6:
 117              	.LBB16:
 195:Middlewares/Third_Party/CANopenNode/301/CO_HBconsumer.c ****         for (uint8_t i = 0; i < HBcons->numberOfMonitoredNodes; i++) {
 196:Middlewares/Third_Party/CANopenNode/301/CO_HBconsumer.c ****             CO_HBconsNode_t node = HBcons->monitoredNodes[i];
 197:Middlewares/Third_Party/CANopenNode/301/CO_HBconsumer.c ****             if(idx != i && node.time_us != 0 && node.nodeId == nodeId) {
 198:Middlewares/Third_Party/CANopenNode/301/CO_HBconsumer.c ****                 ret = CO_ERROR_OD_PARAMETERS;
 199:Middlewares/Third_Party/CANopenNode/301/CO_HBconsumer.c ****             }
 200:Middlewares/Third_Party/CANopenNode/301/CO_HBconsumer.c ****         }
 201:Middlewares/Third_Party/CANopenNode/301/CO_HBconsumer.c ****     }
 202:Middlewares/Third_Party/CANopenNode/301/CO_HBconsumer.c **** 
 203:Middlewares/Third_Party/CANopenNode/301/CO_HBconsumer.c ****     /* Configure one monitored node */
 204:Middlewares/Third_Party/CANopenNode/301/CO_HBconsumer.c ****     if (ret == CO_ERROR_NO) {
 205:Middlewares/Third_Party/CANopenNode/301/CO_HBconsumer.c ****         uint16_t COB_ID;
 118              		.loc 1 205 9 is_stmt 1 view .LVU26
 206:Middlewares/Third_Party/CANopenNode/301/CO_HBconsumer.c **** 
 207:Middlewares/Third_Party/CANopenNode/301/CO_HBconsumer.c ****         CO_HBconsNode_t * monitoredNode = &HBcons->monitoredNodes[idx];
 119              		.loc 1 207 9 view .LVU27
 120              		.loc 1 207 50 is_stmt 0 view .LVU28
 121 001e 6B68     		ldr	r3, [r5, #4]
 122              		.loc 1 207 66 view .LVU29
 123 0020 4FEA041C 		lsl	ip, r4, #4
 124              		.loc 1 207 27 view .LVU30
 125 0024 03EB0410 		add	r0, r3, r4, lsl #4
 126              	.LVL9:
 208:Middlewares/Third_Party/CANopenNode/301/CO_HBconsumer.c ****         monitoredNode->nodeId = nodeId;
 127              		.loc 1 208 9 is_stmt 1 view .LVU31
 128              		.loc 1 208 31 is_stmt 0 view .LVU32
 129 0028 03F80C60 		strb	r6, [r3, ip]
 209:Middlewares/Third_Party/CANopenNode/301/CO_HBconsumer.c ****         monitoredNode->time_us = (int32_t)consumerTime_ms * 1000;
ARM GAS  C:\Users\walker\AppData\Local\Temp\ccbkesbg.s 			page 7


 130              		.loc 1 209 9 is_stmt 1 view .LVU33
 131              		.loc 1 209 59 is_stmt 0 view .LVU34
 132 002c 4FF47A73 		mov	r3, #1000
 133 0030 07FB03F3 		mul	r3, r7, r3
 134              		.loc 1 209 32 view .LVU35
 135 0034 8360     		str	r3, [r0, #8]
 210:Middlewares/Third_Party/CANopenNode/301/CO_HBconsumer.c ****         monitoredNode->NMTstate = CO_NMT_UNKNOWN;
 136              		.loc 1 210 9 is_stmt 1 view .LVU36
 137              		.loc 1 210 33 is_stmt 0 view .LVU37
 138 0036 FF22     		movs	r2, #255
 139 0038 4270     		strb	r2, [r0, #1]
 211:Middlewares/Third_Party/CANopenNode/301/CO_HBconsumer.c **** #if (CO_CONFIG_HB_CONS) & CO_CONFIG_HB_CONS_CALLBACK_CHANGE \
 212:Middlewares/Third_Party/CANopenNode/301/CO_HBconsumer.c ****     || (CO_CONFIG_HB_CONS) & CO_CONFIG_HB_CONS_CALLBACK_MULTI
 213:Middlewares/Third_Party/CANopenNode/301/CO_HBconsumer.c ****         monitoredNode->NMTstatePrev = CO_NMT_UNKNOWN;
 214:Middlewares/Third_Party/CANopenNode/301/CO_HBconsumer.c **** #endif
 215:Middlewares/Third_Party/CANopenNode/301/CO_HBconsumer.c ****         CO_FLAG_CLEAR(monitoredNode->CANrxNew);
 140              		.loc 1 215 9 is_stmt 1 view .LVU38
 141              		.loc 1 215 9 view .LVU39
 142              		.loc 1 215 9 view .LVU40
 143 003a 0022     		movs	r2, #0
 144 003c C260     		str	r2, [r0, #12]
 145              		.loc 1 215 9 view .LVU41
 216:Middlewares/Third_Party/CANopenNode/301/CO_HBconsumer.c **** 
 217:Middlewares/Third_Party/CANopenNode/301/CO_HBconsumer.c ****         /* is channel used */
 218:Middlewares/Third_Party/CANopenNode/301/CO_HBconsumer.c ****         if (monitoredNode->nodeId != 0 && monitoredNode->time_us != 0) {
 146              		.loc 1 218 9 view .LVU42
 147              		.loc 1 218 12 is_stmt 0 view .LVU43
 148 003e 3EB3     		cbz	r6, .L10
 149              		.loc 1 218 40 discriminator 1 view .LVU44
 150 0040 33B3     		cbz	r3, .L10
 219:Middlewares/Third_Party/CANopenNode/301/CO_HBconsumer.c ****             COB_ID = monitoredNode->nodeId + CO_CAN_ID_HEARTBEAT;
 151              		.loc 1 219 13 is_stmt 1 view .LVU45
 152              		.loc 1 219 20 is_stmt 0 view .LVU46
 153 0042 06F5E062 		add	r2, r6, #1792
 154              	.LVL10:
 220:Middlewares/Third_Party/CANopenNode/301/CO_HBconsumer.c ****             monitoredNode->HBstate = CO_HBconsumer_UNKNOWN;
 155              		.loc 1 220 13 is_stmt 1 view .LVU47
 156              		.loc 1 220 36 is_stmt 0 view .LVU48
 157 0046 0123     		movs	r3, #1
 158 0048 8370     		strb	r3, [r0, #2]
 159 004a 24E0     		b	.L11
 160              	.LVL11:
 161              	.L8:
 162              		.loc 1 220 36 view .LVU49
 163              	.LBE16:
 164              	.LBB17:
 195:Middlewares/Third_Party/CANopenNode/301/CO_HBconsumer.c ****             CO_HBconsNode_t node = HBcons->monitoredNodes[i];
 165              		.loc 1 195 65 is_stmt 1 discriminator 2 view .LVU50
 195:Middlewares/Third_Party/CANopenNode/301/CO_HBconsumer.c ****             CO_HBconsNode_t node = HBcons->monitoredNodes[i];
 166              		.loc 1 195 66 is_stmt 0 discriminator 2 view .LVU51
 167 004c 0CF1010C 		add	ip, ip, #1
 168              	.LVL12:
 195:Middlewares/Third_Party/CANopenNode/301/CO_HBconsumer.c ****             CO_HBconsNode_t node = HBcons->monitoredNodes[i];
 169              		.loc 1 195 66 discriminator 2 view .LVU52
 170 0050 5FFA8CFC 		uxtb	ip, ip
 171              	.LVL13:
 172              	.L7:
ARM GAS  C:\Users\walker\AppData\Local\Temp\ccbkesbg.s 			page 8


 195:Middlewares/Third_Party/CANopenNode/301/CO_HBconsumer.c ****             CO_HBconsNode_t node = HBcons->monitoredNodes[i];
 173              		.loc 1 195 29 is_stmt 1 discriminator 1 view .LVU53
 195:Middlewares/Third_Party/CANopenNode/301/CO_HBconsumer.c ****             CO_HBconsNode_t node = HBcons->monitoredNodes[i];
 174              		.loc 1 195 9 is_stmt 0 discriminator 1 view .LVU54
 175 0054 E145     		cmp	r9, ip
 176 0056 17D9     		bls	.L17
 177              	.LBB18:
 196:Middlewares/Third_Party/CANopenNode/301/CO_HBconsumer.c ****             if(idx != i && node.time_us != 0 && node.nodeId == nodeId) {
 178              		.loc 1 196 13 is_stmt 1 view .LVU55
 196:Middlewares/Third_Party/CANopenNode/301/CO_HBconsumer.c ****             if(idx != i && node.time_us != 0 && node.nodeId == nodeId) {
 179              		.loc 1 196 58 is_stmt 0 view .LVU56
 180 0058 6B68     		ldr	r3, [r5, #4]
 181 005a 03EB0C1E 		add	lr, r3, ip, lsl #4
 196:Middlewares/Third_Party/CANopenNode/301/CO_HBconsumer.c ****             if(idx != i && node.time_us != 0 && node.nodeId == nodeId) {
 182              		.loc 1 196 29 view .LVU57
 183 005e 9EE80F00 		ldm	lr, {r0, r1, r2, r3}
 184 0062 0DF1200E 		add	lr, sp, #32
 185 0066 0EE90F00 		stmdb	lr, {r0, r1, r2, r3}
 197:Middlewares/Third_Party/CANopenNode/301/CO_HBconsumer.c ****                 ret = CO_ERROR_OD_PARAMETERS;
 186              		.loc 1 197 13 is_stmt 1 view .LVU58
 197:Middlewares/Third_Party/CANopenNode/301/CO_HBconsumer.c ****                 ret = CO_ERROR_OD_PARAMETERS;
 187              		.loc 1 197 15 is_stmt 0 view .LVU59
 188 006a A445     		cmp	ip, r4
 189 006c EED0     		beq	.L8
 197:Middlewares/Third_Party/CANopenNode/301/CO_HBconsumer.c ****                 ret = CO_ERROR_OD_PARAMETERS;
 190              		.loc 1 197 25 discriminator 1 view .LVU60
 191 006e 002A     		cmp	r2, #0
 192 0070 ECD0     		beq	.L8
 197:Middlewares/Third_Party/CANopenNode/301/CO_HBconsumer.c ****                 ret = CO_ERROR_OD_PARAMETERS;
 193              		.loc 1 197 53 discriminator 2 view .LVU61
 194 0072 9DF81030 		ldrb	r3, [sp, #16]	@ zero_extendqisi2
 197:Middlewares/Third_Party/CANopenNode/301/CO_HBconsumer.c ****                 ret = CO_ERROR_OD_PARAMETERS;
 195              		.loc 1 197 46 discriminator 2 view .LVU62
 196 0076 B342     		cmp	r3, r6
 197 0078 E8D1     		bne	.L8
 198:Middlewares/Third_Party/CANopenNode/301/CO_HBconsumer.c ****             }
 198              		.loc 1 198 21 view .LVU63
 199 007a 6FF00B08 		mvn	r8, #11
 200              	.LVL14:
 198:Middlewares/Third_Party/CANopenNode/301/CO_HBconsumer.c ****             }
 201              		.loc 1 198 21 view .LVU64
 202 007e E5E7     		b	.L8
 203              	.LVL15:
 204              	.L14:
 198:Middlewares/Third_Party/CANopenNode/301/CO_HBconsumer.c ****             }
 205              		.loc 1 198 21 view .LVU65
 206              	.LBE18:
 195:Middlewares/Third_Party/CANopenNode/301/CO_HBconsumer.c ****             CO_HBconsNode_t node = HBcons->monitoredNodes[i];
 207              		.loc 1 195 22 view .LVU66
 208 0080 4FF0000C 		mov	ip, #0
 209              	.LBE17:
 186:Middlewares/Third_Party/CANopenNode/301/CO_HBconsumer.c **** 
 210              		.loc 1 186 22 view .LVU67
 211 0084 E046     		mov	r8, ip
 212 0086 E5E7     		b	.L7
 213              	.LVL16:
 214              	.L17:
ARM GAS  C:\Users\walker\AppData\Local\Temp\ccbkesbg.s 			page 9


 204:Middlewares/Third_Party/CANopenNode/301/CO_HBconsumer.c ****         uint16_t COB_ID;
 215              		.loc 1 204 5 is_stmt 1 view .LVU68
 204:Middlewares/Third_Party/CANopenNode/301/CO_HBconsumer.c ****         uint16_t COB_ID;
 216              		.loc 1 204 8 is_stmt 0 view .LVU69
 217 0088 B8F1000F 		cmp	r8, #0
 218 008c 13D1     		bne	.L5
 219 008e C6E7     		b	.L6
 220              	.LVL17:
 221              	.L10:
 222              	.LBB19:
 221:Middlewares/Third_Party/CANopenNode/301/CO_HBconsumer.c ****         }
 222:Middlewares/Third_Party/CANopenNode/301/CO_HBconsumer.c ****         else {
 223:Middlewares/Third_Party/CANopenNode/301/CO_HBconsumer.c ****             COB_ID = 0;
 223              		.loc 1 223 13 is_stmt 1 view .LVU70
 224:Middlewares/Third_Party/CANopenNode/301/CO_HBconsumer.c ****             monitoredNode->time_us = 0;
 224              		.loc 1 224 13 view .LVU71
 225              		.loc 1 224 36 is_stmt 0 view .LVU72
 226 0090 0022     		movs	r2, #0
 227 0092 8260     		str	r2, [r0, #8]
 225:Middlewares/Third_Party/CANopenNode/301/CO_HBconsumer.c ****             monitoredNode->HBstate = CO_HBconsumer_UNCONFIGURED;
 228              		.loc 1 225 13 is_stmt 1 view .LVU73
 229              		.loc 1 225 36 is_stmt 0 view .LVU74
 230 0094 8270     		strb	r2, [r0, #2]
 231              	.LVL18:
 232              	.L11:
 226:Middlewares/Third_Party/CANopenNode/301/CO_HBconsumer.c ****         }
 227:Middlewares/Third_Party/CANopenNode/301/CO_HBconsumer.c **** 
 228:Middlewares/Third_Party/CANopenNode/301/CO_HBconsumer.c ****         /* configure Heartbeat consumer (or disable) CAN reception */
 229:Middlewares/Third_Party/CANopenNode/301/CO_HBconsumer.c ****         ret = CO_CANrxBufferInit(HBcons->CANdevRx,
 233              		.loc 1 229 9 is_stmt 1 view .LVU75
 230:Middlewares/Third_Party/CANopenNode/301/CO_HBconsumer.c ****                                  HBcons->CANdevRxIdxStart + idx,
 234              		.loc 1 230 40 is_stmt 0 view .LVU76
 235 0096 A98B     		ldrh	r1, [r5, #28]
 231:Middlewares/Third_Party/CANopenNode/301/CO_HBconsumer.c ****                                  COB_ID,
 232:Middlewares/Third_Party/CANopenNode/301/CO_HBconsumer.c ****                                  0x7FF,
 233:Middlewares/Third_Party/CANopenNode/301/CO_HBconsumer.c ****                                  0,
 234:Middlewares/Third_Party/CANopenNode/301/CO_HBconsumer.c ****                                  (void*)&HBcons->monitoredNodes[idx],
 236              		.loc 1 234 48 view .LVU77
 237 0098 6B68     		ldr	r3, [r5, #4]
 238              		.loc 1 234 41 view .LVU78
 239 009a 6344     		add	r3, r3, ip
 229:Middlewares/Third_Party/CANopenNode/301/CO_HBconsumer.c ****                                  HBcons->CANdevRxIdxStart + idx,
 240              		.loc 1 229 15 view .LVU79
 241 009c 2144     		add	r1, r1, r4
 242 009e 0B48     		ldr	r0, .L18
 243              	.LVL19:
 229:Middlewares/Third_Party/CANopenNode/301/CO_HBconsumer.c ****                                  HBcons->CANdevRxIdxStart + idx,
 244              		.loc 1 229 15 view .LVU80
 245 00a0 0290     		str	r0, [sp, #8]
 246 00a2 0193     		str	r3, [sp, #4]
 247 00a4 0023     		movs	r3, #0
 248 00a6 0093     		str	r3, [sp]
 249 00a8 40F2FF73 		movw	r3, #2047
 250 00ac 89B2     		uxth	r1, r1
 251 00ae A869     		ldr	r0, [r5, #24]
 252 00b0 FFF7FEFF 		bl	CO_CANrxBufferInit
 253              	.LVL20:
ARM GAS  C:\Users\walker\AppData\Local\Temp\ccbkesbg.s 			page 10


 229:Middlewares/Third_Party/CANopenNode/301/CO_HBconsumer.c ****                                  HBcons->CANdevRxIdxStart + idx,
 254              		.loc 1 229 15 view .LVU81
 255 00b4 8046     		mov	r8, r0
 256              	.LVL21:
 257              	.L5:
 229:Middlewares/Third_Party/CANopenNode/301/CO_HBconsumer.c ****                                  HBcons->CANdevRxIdxStart + idx,
 258              		.loc 1 229 15 view .LVU82
 259              	.LBE19:
 235:Middlewares/Third_Party/CANopenNode/301/CO_HBconsumer.c ****                                  CO_HBcons_receive);
 236:Middlewares/Third_Party/CANopenNode/301/CO_HBconsumer.c ****     }
 237:Middlewares/Third_Party/CANopenNode/301/CO_HBconsumer.c ****     return ret;
 238:Middlewares/Third_Party/CANopenNode/301/CO_HBconsumer.c **** }
 260              		.loc 1 238 1 view .LVU83
 261 00b6 4046     		mov	r0, r8
 262 00b8 09B0     		add	sp, sp, #36
 263              	.LCFI2:
 264              		.cfi_remember_state
 265              		.cfi_def_cfa_offset 28
 266              		@ sp needed
 267 00ba BDE8F083 		pop	{r4, r5, r6, r7, r8, r9, pc}
 268              	.LVL22:
 269              	.L12:
 270              	.LCFI3:
 271              		.cfi_restore_state
 190:Middlewares/Third_Party/CANopenNode/301/CO_HBconsumer.c ****     }
 272              		.loc 1 190 16 view .LVU84
 273 00be 4FF0FF38 		mov	r8, #-1
 274 00c2 F8E7     		b	.L5
 275              	.L13:
 190:Middlewares/Third_Party/CANopenNode/301/CO_HBconsumer.c ****     }
 276              		.loc 1 190 16 view .LVU85
 277 00c4 4FF0FF38 		mov	r8, #-1
 278 00c8 F5E7     		b	.L5
 279              	.L19:
 280 00ca 00BF     		.align	2
 281              	.L18:
 282 00cc 00000000 		.word	CO_HBcons_receive
 283              		.cfi_endproc
 284              	.LFE163:
 286              		.section	.text.OD_write_1016,"ax",%progbits
 287              		.align	1
 288              		.syntax unified
 289              		.thumb
 290              		.thumb_func
 292              	OD_write_1016:
 293              	.LVL23:
 294              	.LFB161:
  88:Middlewares/Third_Party/CANopenNode/301/CO_HBconsumer.c ****     CO_HBconsumer_t *HBcons = stream->object;
 295              		.loc 1 88 1 is_stmt 1 view -0
 296              		.cfi_startproc
 297              		@ args = 0, pretend = 0, frame = 0
 298              		@ frame_needed = 0, uses_anonymous_args = 0
  88:Middlewares/Third_Party/CANopenNode/301/CO_HBconsumer.c ****     CO_HBconsumer_t *HBcons = stream->object;
 299              		.loc 1 88 1 is_stmt 0 view .LVU87
 300 0000 F8B5     		push	{r3, r4, r5, r6, r7, lr}
 301              	.LCFI4:
 302              		.cfi_def_cfa_offset 24
ARM GAS  C:\Users\walker\AppData\Local\Temp\ccbkesbg.s 			page 11


 303              		.cfi_offset 3, -24
 304              		.cfi_offset 4, -20
 305              		.cfi_offset 5, -16
 306              		.cfi_offset 6, -12
 307              		.cfi_offset 7, -8
 308              		.cfi_offset 14, -4
 309 0002 0446     		mov	r4, r0
  89:Middlewares/Third_Party/CANopenNode/301/CO_HBconsumer.c **** 
 310              		.loc 1 89 5 is_stmt 1 view .LVU88
  89:Middlewares/Third_Party/CANopenNode/301/CO_HBconsumer.c **** 
 311              		.loc 1 89 22 is_stmt 0 view .LVU89
 312 0004 4068     		ldr	r0, [r0, #4]
 313              	.LVL24:
  91:Middlewares/Third_Party/CANopenNode/301/CO_HBconsumer.c ****         || stream->subIndex < 1
 314              		.loc 1 91 5 is_stmt 1 view .LVU90
  91:Middlewares/Third_Party/CANopenNode/301/CO_HBconsumer.c ****         || stream->subIndex < 1
 315              		.loc 1 91 8 is_stmt 0 view .LVU91
 316 0006 DCB1     		cbz	r4, .L22
 317 0008 0D46     		mov	r5, r1
 318 000a 1746     		mov	r7, r2
 319 000c 1E46     		mov	r6, r3
  91:Middlewares/Third_Party/CANopenNode/301/CO_HBconsumer.c ****         || stream->subIndex < 1
 320              		.loc 1 91 24 discriminator 1 view .LVU92
 321 000e C9B1     		cbz	r1, .L23
  92:Middlewares/Third_Party/CANopenNode/301/CO_HBconsumer.c ****         || stream->subIndex > HBcons->numberOfMonitoredNodes
 322              		.loc 1 92 18 view .LVU93
 323 0010 617C     		ldrb	r1, [r4, #17]	@ zero_extendqisi2
 324              	.LVL25:
  92:Middlewares/Third_Party/CANopenNode/301/CO_HBconsumer.c ****         || stream->subIndex > HBcons->numberOfMonitoredNodes
 325              		.loc 1 92 9 view .LVU94
 326 0012 C9B1     		cbz	r1, .L24
  93:Middlewares/Third_Party/CANopenNode/301/CO_HBconsumer.c ****         || count != sizeof(uint32_t) || countWritten == NULL
 327              		.loc 1 93 37 view .LVU95
 328 0014 037A     		ldrb	r3, [r0, #8]	@ zero_extendqisi2
 329              	.LVL26:
  93:Middlewares/Third_Party/CANopenNode/301/CO_HBconsumer.c ****         || count != sizeof(uint32_t) || countWritten == NULL
 330              		.loc 1 93 9 view .LVU96
 331 0016 9942     		cmp	r1, r3
 332 0018 18D8     		bhi	.L25
  94:Middlewares/Third_Party/CANopenNode/301/CO_HBconsumer.c ****     ) {
 333              		.loc 1 94 9 view .LVU97
 334 001a 042A     		cmp	r2, #4
 335 001c 18D1     		bne	.L26
  94:Middlewares/Third_Party/CANopenNode/301/CO_HBconsumer.c ****     ) {
 336              		.loc 1 94 38 discriminator 1 view .LVU98
 337 001e CEB1     		cbz	r6, .L27
  99:Middlewares/Third_Party/CANopenNode/301/CO_HBconsumer.c ****     uint8_t nodeId = (val >> 16) & 0xFF;
 338              		.loc 1 99 5 is_stmt 1 view .LVU99
 339              	.LVL27:
 340              		.file 2 "Middlewares/Third_Party/CANopenNode/301/CO_driver.h"
   1:Middlewares/Third_Party/CANopenNode/301/CO_driver.h **** /**
   2:Middlewares/Third_Party/CANopenNode/301/CO_driver.h ****  * Interface between CAN hardware and CANopenNode.
   3:Middlewares/Third_Party/CANopenNode/301/CO_driver.h ****  *
   4:Middlewares/Third_Party/CANopenNode/301/CO_driver.h ****  * @file        CO_driver.h
   5:Middlewares/Third_Party/CANopenNode/301/CO_driver.h ****  * @ingroup     CO_driver
   6:Middlewares/Third_Party/CANopenNode/301/CO_driver.h ****  * @author      Janez Paternoster
   7:Middlewares/Third_Party/CANopenNode/301/CO_driver.h ****  * @copyright   2004 - 2020 Janez Paternoster
ARM GAS  C:\Users\walker\AppData\Local\Temp\ccbkesbg.s 			page 12


   8:Middlewares/Third_Party/CANopenNode/301/CO_driver.h ****  *
   9:Middlewares/Third_Party/CANopenNode/301/CO_driver.h ****  * This file is part of CANopenNode, an opensource CANopen Stack.
  10:Middlewares/Third_Party/CANopenNode/301/CO_driver.h ****  * Project home page is <https://github.com/CANopenNode/CANopenNode>.
  11:Middlewares/Third_Party/CANopenNode/301/CO_driver.h ****  * For more information on CANopen see <http://www.can-cia.org/>.
  12:Middlewares/Third_Party/CANopenNode/301/CO_driver.h ****  *
  13:Middlewares/Third_Party/CANopenNode/301/CO_driver.h ****  * Licensed under the Apache License, Version 2.0 (the "License");
  14:Middlewares/Third_Party/CANopenNode/301/CO_driver.h ****  * you may not use this file except in compliance with the License.
  15:Middlewares/Third_Party/CANopenNode/301/CO_driver.h ****  * You may obtain a copy of the License at
  16:Middlewares/Third_Party/CANopenNode/301/CO_driver.h ****  *
  17:Middlewares/Third_Party/CANopenNode/301/CO_driver.h ****  *     http://www.apache.org/licenses/LICENSE-2.0
  18:Middlewares/Third_Party/CANopenNode/301/CO_driver.h ****  *
  19:Middlewares/Third_Party/CANopenNode/301/CO_driver.h ****  * Unless required by applicable law or agreed to in writing, software
  20:Middlewares/Third_Party/CANopenNode/301/CO_driver.h ****  * distributed under the License is distributed on an "AS IS" BASIS,
  21:Middlewares/Third_Party/CANopenNode/301/CO_driver.h ****  * WITHOUT WARRANTIES OR CONDITIONS OF ANY KIND, either express or implied.
  22:Middlewares/Third_Party/CANopenNode/301/CO_driver.h ****  * See the License for the specific language governing permissions and
  23:Middlewares/Third_Party/CANopenNode/301/CO_driver.h ****  * limitations under the License.
  24:Middlewares/Third_Party/CANopenNode/301/CO_driver.h ****  */
  25:Middlewares/Third_Party/CANopenNode/301/CO_driver.h **** 
  26:Middlewares/Third_Party/CANopenNode/301/CO_driver.h **** #ifndef CO_DRIVER_H
  27:Middlewares/Third_Party/CANopenNode/301/CO_driver.h **** #define CO_DRIVER_H
  28:Middlewares/Third_Party/CANopenNode/301/CO_driver.h **** 
  29:Middlewares/Third_Party/CANopenNode/301/CO_driver.h **** #include <string.h>
  30:Middlewares/Third_Party/CANopenNode/301/CO_driver.h **** 
  31:Middlewares/Third_Party/CANopenNode/301/CO_driver.h **** #include "CO_config.h"
  32:Middlewares/Third_Party/CANopenNode/301/CO_driver.h **** #include "CO_driver_target.h"
  33:Middlewares/Third_Party/CANopenNode/301/CO_driver.h **** 
  34:Middlewares/Third_Party/CANopenNode/301/CO_driver.h **** #ifdef __cplusplus
  35:Middlewares/Third_Party/CANopenNode/301/CO_driver.h **** extern "C" {
  36:Middlewares/Third_Party/CANopenNode/301/CO_driver.h **** #endif
  37:Middlewares/Third_Party/CANopenNode/301/CO_driver.h **** 
  38:Middlewares/Third_Party/CANopenNode/301/CO_driver.h **** /* Stack configuration default global values.
  39:Middlewares/Third_Party/CANopenNode/301/CO_driver.h ****  * For more information see file CO_config.h. */
  40:Middlewares/Third_Party/CANopenNode/301/CO_driver.h **** #ifndef CO_CONFIG_GLOBAL_FLAG_CALLBACK_PRE
  41:Middlewares/Third_Party/CANopenNode/301/CO_driver.h ****  #define CO_CONFIG_GLOBAL_FLAG_CALLBACK_PRE (0)
  42:Middlewares/Third_Party/CANopenNode/301/CO_driver.h **** #endif
  43:Middlewares/Third_Party/CANopenNode/301/CO_driver.h **** #ifndef CO_CONFIG_GLOBAL_RT_FLAG_CALLBACK_PRE
  44:Middlewares/Third_Party/CANopenNode/301/CO_driver.h ****  #define CO_CONFIG_GLOBAL_RT_FLAG_CALLBACK_PRE (0)
  45:Middlewares/Third_Party/CANopenNode/301/CO_driver.h **** #endif
  46:Middlewares/Third_Party/CANopenNode/301/CO_driver.h **** #ifndef CO_CONFIG_GLOBAL_FLAG_TIMERNEXT
  47:Middlewares/Third_Party/CANopenNode/301/CO_driver.h ****  #define CO_CONFIG_GLOBAL_FLAG_TIMERNEXT (0)
  48:Middlewares/Third_Party/CANopenNode/301/CO_driver.h **** #endif
  49:Middlewares/Third_Party/CANopenNode/301/CO_driver.h **** #ifndef CO_CONFIG_GLOBAL_FLAG_OD_DYNAMIC
  50:Middlewares/Third_Party/CANopenNode/301/CO_driver.h ****  #define CO_CONFIG_GLOBAL_FLAG_OD_DYNAMIC CO_CONFIG_FLAG_OD_DYNAMIC
  51:Middlewares/Third_Party/CANopenNode/301/CO_driver.h **** #endif
  52:Middlewares/Third_Party/CANopenNode/301/CO_driver.h **** #ifdef CO_DEBUG_COMMON
  53:Middlewares/Third_Party/CANopenNode/301/CO_driver.h ****  #if (CO_CONFIG_DEBUG) & CO_CONFIG_DEBUG_SDO_CLIENT
  54:Middlewares/Third_Party/CANopenNode/301/CO_driver.h ****   #define CO_DEBUG_SDO_CLIENT(msg) CO_DEBUG_COMMON(msg)
  55:Middlewares/Third_Party/CANopenNode/301/CO_driver.h ****  #endif
  56:Middlewares/Third_Party/CANopenNode/301/CO_driver.h ****  #if (CO_CONFIG_DEBUG) & CO_CONFIG_DEBUG_SDO_SERVER
  57:Middlewares/Third_Party/CANopenNode/301/CO_driver.h ****   #define CO_DEBUG_SDO_SERVER(msg) CO_DEBUG_COMMON(msg)
  58:Middlewares/Third_Party/CANopenNode/301/CO_driver.h ****  #endif
  59:Middlewares/Third_Party/CANopenNode/301/CO_driver.h **** #endif
  60:Middlewares/Third_Party/CANopenNode/301/CO_driver.h **** 
  61:Middlewares/Third_Party/CANopenNode/301/CO_driver.h **** /**
  62:Middlewares/Third_Party/CANopenNode/301/CO_driver.h ****  * @defgroup CO_driver Driver
  63:Middlewares/Third_Party/CANopenNode/301/CO_driver.h ****  * Interface between CAN hardware and CANopenNode.
  64:Middlewares/Third_Party/CANopenNode/301/CO_driver.h ****  *
ARM GAS  C:\Users\walker\AppData\Local\Temp\ccbkesbg.s 			page 13


  65:Middlewares/Third_Party/CANopenNode/301/CO_driver.h ****  * @ingroup CO_CANopen_301
  66:Middlewares/Third_Party/CANopenNode/301/CO_driver.h ****  * @{
  67:Middlewares/Third_Party/CANopenNode/301/CO_driver.h ****  * CANopenNode is designed for speed and portability. It runs efficiently on
  68:Middlewares/Third_Party/CANopenNode/301/CO_driver.h ****  * devices from simple 16-bit microcontrollers to PC computers. It can run in
  69:Middlewares/Third_Party/CANopenNode/301/CO_driver.h ****  * multiple threads. Reception of CAN messages is pre-processed with very fast
  70:Middlewares/Third_Party/CANopenNode/301/CO_driver.h ****  * functions. Time critical objects, such as PDO or SYNC are processed in
  71:Middlewares/Third_Party/CANopenNode/301/CO_driver.h ****  * real-time thread and other objects are processed in normal thread. See
  72:Middlewares/Third_Party/CANopenNode/301/CO_driver.h ****  * Flowchart in [README.md](index.html) for more information.
  73:Middlewares/Third_Party/CANopenNode/301/CO_driver.h ****  *
  74:Middlewares/Third_Party/CANopenNode/301/CO_driver.h ****  * @anchor CO_obj
  75:Middlewares/Third_Party/CANopenNode/301/CO_driver.h ****  * #### CANopenNode Object
  76:Middlewares/Third_Party/CANopenNode/301/CO_driver.h ****  * CANopenNode is implemented as a collection of different objects, for example
  77:Middlewares/Third_Party/CANopenNode/301/CO_driver.h ****  * SDO, SYNC, Emergency, PDO, NMT, Heartbeat, etc. Code is written in C language
  78:Middlewares/Third_Party/CANopenNode/301/CO_driver.h ****  * and tries to be object oriented. So each CANopenNode Object is implemented in
  79:Middlewares/Third_Party/CANopenNode/301/CO_driver.h ****  * a pair of .h/.c files. It basically contains a structure with all necessary
  80:Middlewares/Third_Party/CANopenNode/301/CO_driver.h ****  * variables and some functions which operates on it. CANopenNode Object is
  81:Middlewares/Third_Party/CANopenNode/301/CO_driver.h ****  * usually connected with one or more CAN receive or transmit Message Objects.
  82:Middlewares/Third_Party/CANopenNode/301/CO_driver.h ****  * (CAN message Object is a CAN message with specific 11-bit CAN identifier
  83:Middlewares/Third_Party/CANopenNode/301/CO_driver.h ****  * (usually one fixed or a range).)
  84:Middlewares/Third_Party/CANopenNode/301/CO_driver.h ****  *
  85:Middlewares/Third_Party/CANopenNode/301/CO_driver.h ****  * #### Hardware interface of CANopenNode
  86:Middlewares/Third_Party/CANopenNode/301/CO_driver.h ****  * It consists of minimum three files:
  87:Middlewares/Third_Party/CANopenNode/301/CO_driver.h ****  * - **CO_driver.h** file declares common functions. This file is part of the
  88:Middlewares/Third_Party/CANopenNode/301/CO_driver.h ****  * CANopenNode. It is included from each .c file from CANopenNode.
  89:Middlewares/Third_Party/CANopenNode/301/CO_driver.h ****  * - **CO_driver_target.h** file declares microcontroller specific type
  90:Middlewares/Third_Party/CANopenNode/301/CO_driver.h ****  * declarations and defines some macros, which are necessary for CANopenNode.
  91:Middlewares/Third_Party/CANopenNode/301/CO_driver.h ****  * This file is included from CO_driver.h.
  92:Middlewares/Third_Party/CANopenNode/301/CO_driver.h ****  * - **CO_driver.c** file defines functions declared in CO_driver.h.
  93:Middlewares/Third_Party/CANopenNode/301/CO_driver.h ****  *
  94:Middlewares/Third_Party/CANopenNode/301/CO_driver.h ****  * **CO_driver_target.h** and **CO_driver.c** files are specific for each
  95:Middlewares/Third_Party/CANopenNode/301/CO_driver.h ****  * different microcontroller and are not part of CANopenNode. There are separate
  96:Middlewares/Third_Party/CANopenNode/301/CO_driver.h ****  * projects for different microcontrollers, which usually include CANopenNode as
  97:Middlewares/Third_Party/CANopenNode/301/CO_driver.h ****  * a git submodule. CANopenNode only includes those two files in the `example`
  98:Middlewares/Third_Party/CANopenNode/301/CO_driver.h ****  * directory and they are basically empty. It should be possible to compile the
  99:Middlewares/Third_Party/CANopenNode/301/CO_driver.h ****  * `CANopenNode/example` on any system, however compiled program is not usable.
 100:Middlewares/Third_Party/CANopenNode/301/CO_driver.h ****  * CO_driver.h contains documentation for all necessary macros, types and
 101:Middlewares/Third_Party/CANopenNode/301/CO_driver.h ****  * functions.
 102:Middlewares/Third_Party/CANopenNode/301/CO_driver.h ****  *
 103:Middlewares/Third_Party/CANopenNode/301/CO_driver.h ****  * See [CANopenNode/Wiki](https://github.com/CANopenNode/CANopenNode/wiki) for a
 104:Middlewares/Third_Party/CANopenNode/301/CO_driver.h ****  * known list of available implementations of CANopenNode on different systems
 105:Middlewares/Third_Party/CANopenNode/301/CO_driver.h ****  * and microcontrollers. Everybody is welcome to extend the list with a link to
 106:Middlewares/Third_Party/CANopenNode/301/CO_driver.h ****  * his own implementation.
 107:Middlewares/Third_Party/CANopenNode/301/CO_driver.h ****  *
 108:Middlewares/Third_Party/CANopenNode/301/CO_driver.h ****  * Implementation of the hardware interface for specific microcontroller is not
 109:Middlewares/Third_Party/CANopenNode/301/CO_driver.h ****  * always an easy task. For reliable and efficient operation it is necessary to
 110:Middlewares/Third_Party/CANopenNode/301/CO_driver.h ****  * know some parts of the target microcontroller in detail (for example threads
 111:Middlewares/Third_Party/CANopenNode/301/CO_driver.h ****  * (or interrupts), CAN module, etc.).
 112:Middlewares/Third_Party/CANopenNode/301/CO_driver.h ****  */
 113:Middlewares/Third_Party/CANopenNode/301/CO_driver.h **** 
 114:Middlewares/Third_Party/CANopenNode/301/CO_driver.h **** /** Major version number of CANopenNode */
 115:Middlewares/Third_Party/CANopenNode/301/CO_driver.h **** #define CO_VERSION_MAJOR 4
 116:Middlewares/Third_Party/CANopenNode/301/CO_driver.h **** /** Minor version number of CANopenNode */
 117:Middlewares/Third_Party/CANopenNode/301/CO_driver.h **** #define CO_VERSION_MINOR 0
 118:Middlewares/Third_Party/CANopenNode/301/CO_driver.h **** 
 119:Middlewares/Third_Party/CANopenNode/301/CO_driver.h **** 
 120:Middlewares/Third_Party/CANopenNode/301/CO_driver.h **** /* Macros and declarations in following part are only used for documentation. */
 121:Middlewares/Third_Party/CANopenNode/301/CO_driver.h **** #ifdef CO_DOXYGEN
ARM GAS  C:\Users\walker\AppData\Local\Temp\ccbkesbg.s 			page 14


 122:Middlewares/Third_Party/CANopenNode/301/CO_driver.h **** /**
 123:Middlewares/Third_Party/CANopenNode/301/CO_driver.h ****  * @defgroup CO_dataTypes Basic definitions
 124:Middlewares/Third_Party/CANopenNode/301/CO_driver.h ****  * @{
 125:Middlewares/Third_Party/CANopenNode/301/CO_driver.h ****  *
 126:Middlewares/Third_Party/CANopenNode/301/CO_driver.h ****  * Target specific basic definitions and data types.
 127:Middlewares/Third_Party/CANopenNode/301/CO_driver.h ****  *
 128:Middlewares/Third_Party/CANopenNode/301/CO_driver.h ****  * Must be defined in the **CO_driver_target.h** file.
 129:Middlewares/Third_Party/CANopenNode/301/CO_driver.h ****  *
 130:Middlewares/Third_Party/CANopenNode/301/CO_driver.h ****  * Depending on processor or compiler architecture, one of the two macros must
 131:Middlewares/Third_Party/CANopenNode/301/CO_driver.h ****  * be defined: CO_LITTLE_ENDIAN or CO_BIG_ENDIAN. CANopen itself is little
 132:Middlewares/Third_Party/CANopenNode/301/CO_driver.h ****  * endian.
 133:Middlewares/Third_Party/CANopenNode/301/CO_driver.h ****  *
 134:Middlewares/Third_Party/CANopenNode/301/CO_driver.h ****  * Basic data types may be specified differently on different architectures.
 135:Middlewares/Third_Party/CANopenNode/301/CO_driver.h ****  * Usually `true` and `false` are defined in `<stdbool.h>`, `NULL` is defined in
 136:Middlewares/Third_Party/CANopenNode/301/CO_driver.h ****  * `<stddef.h>`, `int8_t` to `uint64_t` are defined in `<stdint.h>`.
 137:Middlewares/Third_Party/CANopenNode/301/CO_driver.h ****  */
 138:Middlewares/Third_Party/CANopenNode/301/CO_driver.h **** /** CO_LITTLE_ENDIAN or CO_BIG_ENDIAN must be defined */
 139:Middlewares/Third_Party/CANopenNode/301/CO_driver.h **** #define CO_LITTLE_ENDIAN
 140:Middlewares/Third_Party/CANopenNode/301/CO_driver.h **** /** Macro must swap bytes, if CO_BIG_ENDIAN is defined */
 141:Middlewares/Third_Party/CANopenNode/301/CO_driver.h **** #define CO_SWAP_16(x) x
 142:Middlewares/Third_Party/CANopenNode/301/CO_driver.h **** /** Macro must swap bytes, if CO_BIG_ENDIAN is defined */
 143:Middlewares/Third_Party/CANopenNode/301/CO_driver.h **** #define CO_SWAP_32(x) x
 144:Middlewares/Third_Party/CANopenNode/301/CO_driver.h **** /** Macro must swap bytes, if CO_BIG_ENDIAN is defined */
 145:Middlewares/Third_Party/CANopenNode/301/CO_driver.h **** #define CO_SWAP_64(x) x
 146:Middlewares/Third_Party/CANopenNode/301/CO_driver.h **** /** NULL, for general usage */
 147:Middlewares/Third_Party/CANopenNode/301/CO_driver.h **** #define NULL (0)
 148:Middlewares/Third_Party/CANopenNode/301/CO_driver.h **** /** Logical true, for general use */
 149:Middlewares/Third_Party/CANopenNode/301/CO_driver.h **** #define true 1
 150:Middlewares/Third_Party/CANopenNode/301/CO_driver.h **** /** Logical false, for general use */
 151:Middlewares/Third_Party/CANopenNode/301/CO_driver.h **** #define false 0
 152:Middlewares/Third_Party/CANopenNode/301/CO_driver.h **** /** Boolean data type for general use */
 153:Middlewares/Third_Party/CANopenNode/301/CO_driver.h **** typedef uint_fast8_t bool_t;
 154:Middlewares/Third_Party/CANopenNode/301/CO_driver.h **** /** INTEGER8 in CANopen (0002h), 8-bit signed integer */
 155:Middlewares/Third_Party/CANopenNode/301/CO_driver.h **** typedef signed char int8_t;
 156:Middlewares/Third_Party/CANopenNode/301/CO_driver.h **** /** INTEGER16 in CANopen (0003h), 16-bit signed integer */
 157:Middlewares/Third_Party/CANopenNode/301/CO_driver.h **** typedef signed int int16_t;
 158:Middlewares/Third_Party/CANopenNode/301/CO_driver.h **** /** INTEGER32 in CANopen (0004h), 32-bit signed integer */
 159:Middlewares/Third_Party/CANopenNode/301/CO_driver.h **** typedef signed long int int32_t;
 160:Middlewares/Third_Party/CANopenNode/301/CO_driver.h **** /** INTEGER64 in CANopen (0015h), 64-bit signed integer */
 161:Middlewares/Third_Party/CANopenNode/301/CO_driver.h **** typedef signed long long int int64_t;
 162:Middlewares/Third_Party/CANopenNode/301/CO_driver.h **** /** UNSIGNED8 in CANopen (0005h), 8-bit unsigned integer */
 163:Middlewares/Third_Party/CANopenNode/301/CO_driver.h **** typedef unsigned char uint8_t;
 164:Middlewares/Third_Party/CANopenNode/301/CO_driver.h **** /** UNSIGNED16 in CANopen (0006h), 16-bit unsigned integer */
 165:Middlewares/Third_Party/CANopenNode/301/CO_driver.h **** typedef unsigned int uint16_t;
 166:Middlewares/Third_Party/CANopenNode/301/CO_driver.h **** /** UNSIGNED32 in CANopen (0007h), 32-bit unsigned integer */
 167:Middlewares/Third_Party/CANopenNode/301/CO_driver.h **** typedef unsigned long int uint32_t;
 168:Middlewares/Third_Party/CANopenNode/301/CO_driver.h **** /** UNSIGNED64 in CANopen (001Bh), 64-bit unsigned integer */
 169:Middlewares/Third_Party/CANopenNode/301/CO_driver.h **** typedef unsigned long long int uint64_t;
 170:Middlewares/Third_Party/CANopenNode/301/CO_driver.h **** /** REAL32 in CANopen (0008h), single precision floating point value, 32-bit */
 171:Middlewares/Third_Party/CANopenNode/301/CO_driver.h **** typedef float float32_t;
 172:Middlewares/Third_Party/CANopenNode/301/CO_driver.h **** /** REAL64 in CANopen (0011h), double precision floating point value, 64-bit */
 173:Middlewares/Third_Party/CANopenNode/301/CO_driver.h **** typedef double float64_t;
 174:Middlewares/Third_Party/CANopenNode/301/CO_driver.h **** /** @} */
 175:Middlewares/Third_Party/CANopenNode/301/CO_driver.h **** 
 176:Middlewares/Third_Party/CANopenNode/301/CO_driver.h **** 
 177:Middlewares/Third_Party/CANopenNode/301/CO_driver.h **** /**
 178:Middlewares/Third_Party/CANopenNode/301/CO_driver.h ****  * @defgroup CO_CAN_Message_reception Reception of CAN messages
ARM GAS  C:\Users\walker\AppData\Local\Temp\ccbkesbg.s 			page 15


 179:Middlewares/Third_Party/CANopenNode/301/CO_driver.h ****  * @{
 180:Middlewares/Third_Party/CANopenNode/301/CO_driver.h ****  *
 181:Middlewares/Third_Party/CANopenNode/301/CO_driver.h ****  * Target specific definitions and description of CAN message reception
 182:Middlewares/Third_Party/CANopenNode/301/CO_driver.h ****  *
 183:Middlewares/Third_Party/CANopenNode/301/CO_driver.h ****  * CAN messages in CANopenNode are usually received by its own thread or higher
 184:Middlewares/Third_Party/CANopenNode/301/CO_driver.h ****  * priority interrupt. Received CAN messages are first filtered by hardware or
 185:Middlewares/Third_Party/CANopenNode/301/CO_driver.h ****  * by software. Thread then examines its 11-bit CAN-id and mask and determines,
 186:Middlewares/Third_Party/CANopenNode/301/CO_driver.h ****  * to which \ref CO_obj "CANopenNode Object" it belongs to. After that it calls
 187:Middlewares/Third_Party/CANopenNode/301/CO_driver.h ****  * predefined CANrx_callback() function, which quickly pre-processes the message
 188:Middlewares/Third_Party/CANopenNode/301/CO_driver.h ****  * and fetches the relevant data. CANrx_callback() function is defined by each
 189:Middlewares/Third_Party/CANopenNode/301/CO_driver.h ****  * \ref CO_obj "CANopenNode Object" separately. Pre-processed fetched data are
 190:Middlewares/Third_Party/CANopenNode/301/CO_driver.h ****  * later processed in another thread.
 191:Middlewares/Third_Party/CANopenNode/301/CO_driver.h ****  *
 192:Middlewares/Third_Party/CANopenNode/301/CO_driver.h ****  * If \ref CO_obj "CANopenNode Object" reception of specific CAN message, it
 193:Middlewares/Third_Party/CANopenNode/301/CO_driver.h ****  * must first configure its own CO_CANrx_t object with the CO_CANrxBufferInit()
 194:Middlewares/Third_Party/CANopenNode/301/CO_driver.h ****  * function.
 195:Middlewares/Third_Party/CANopenNode/301/CO_driver.h ****  */
 196:Middlewares/Third_Party/CANopenNode/301/CO_driver.h **** 
 197:Middlewares/Third_Party/CANopenNode/301/CO_driver.h **** /**
 198:Middlewares/Third_Party/CANopenNode/301/CO_driver.h ****  * CAN receive callback function which pre-processes received CAN message
 199:Middlewares/Third_Party/CANopenNode/301/CO_driver.h ****  *
 200:Middlewares/Third_Party/CANopenNode/301/CO_driver.h ****  * It is called by fast CAN receive thread. Each \ref CO_obj "CANopenNode
 201:Middlewares/Third_Party/CANopenNode/301/CO_driver.h ****  * Object" defines its own and registers it with CO_CANrxBufferInit(), by
 202:Middlewares/Third_Party/CANopenNode/301/CO_driver.h ****  * passing function pointer.
 203:Middlewares/Third_Party/CANopenNode/301/CO_driver.h ****  *
 204:Middlewares/Third_Party/CANopenNode/301/CO_driver.h ****  * @param object pointer to specific \ref CO_obj "CANopenNode Object",
 205:Middlewares/Third_Party/CANopenNode/301/CO_driver.h ****  * registered with CO_CANrxBufferInit()
 206:Middlewares/Third_Party/CANopenNode/301/CO_driver.h ****  * @param rxMsg pointer to received CAN message
 207:Middlewares/Third_Party/CANopenNode/301/CO_driver.h ****  */
 208:Middlewares/Third_Party/CANopenNode/301/CO_driver.h **** void CANrx_callback(void *object, void *rxMsg);
 209:Middlewares/Third_Party/CANopenNode/301/CO_driver.h **** 
 210:Middlewares/Third_Party/CANopenNode/301/CO_driver.h **** /**
 211:Middlewares/Third_Party/CANopenNode/301/CO_driver.h ****  * CANrx_callback() can read CAN identifier from received CAN message
 212:Middlewares/Third_Party/CANopenNode/301/CO_driver.h ****  *
 213:Middlewares/Third_Party/CANopenNode/301/CO_driver.h ****  * Must be defined in the **CO_driver_target.h** file.
 214:Middlewares/Third_Party/CANopenNode/301/CO_driver.h ****  *
 215:Middlewares/Third_Party/CANopenNode/301/CO_driver.h ****  * This is target specific function and is specific for specific
 216:Middlewares/Third_Party/CANopenNode/301/CO_driver.h ****  * microcontroller. It is best to implement it by using inline function or
 217:Middlewares/Third_Party/CANopenNode/301/CO_driver.h ****  * macro. `rxMsg` parameter should cast to a pointer to structure. For best
 218:Middlewares/Third_Party/CANopenNode/301/CO_driver.h ****  * efficiency structure may have the same alignment as CAN registers inside CAN
 219:Middlewares/Third_Party/CANopenNode/301/CO_driver.h ****  * module.
 220:Middlewares/Third_Party/CANopenNode/301/CO_driver.h ****  *
 221:Middlewares/Third_Party/CANopenNode/301/CO_driver.h ****  * @param rxMsg Pointer to received message
 222:Middlewares/Third_Party/CANopenNode/301/CO_driver.h ****  * @return 11-bit CAN standard identifier.
 223:Middlewares/Third_Party/CANopenNode/301/CO_driver.h ****  */
 224:Middlewares/Third_Party/CANopenNode/301/CO_driver.h **** static inline uint16_t CO_CANrxMsg_readIdent(void *rxMsg) {
 225:Middlewares/Third_Party/CANopenNode/301/CO_driver.h ****     return 0;
 226:Middlewares/Third_Party/CANopenNode/301/CO_driver.h **** }
 227:Middlewares/Third_Party/CANopenNode/301/CO_driver.h **** 
 228:Middlewares/Third_Party/CANopenNode/301/CO_driver.h **** /**
 229:Middlewares/Third_Party/CANopenNode/301/CO_driver.h ****  * CANrx_callback() can read Data Length Code from received CAN message
 230:Middlewares/Third_Party/CANopenNode/301/CO_driver.h ****  *
 231:Middlewares/Third_Party/CANopenNode/301/CO_driver.h ****  * See also CO_CANrxMsg_readIdent():
 232:Middlewares/Third_Party/CANopenNode/301/CO_driver.h ****  *
 233:Middlewares/Third_Party/CANopenNode/301/CO_driver.h ****  * @param rxMsg Pointer to received message
 234:Middlewares/Third_Party/CANopenNode/301/CO_driver.h ****  * @return data length in bytes (0 to 8)
 235:Middlewares/Third_Party/CANopenNode/301/CO_driver.h ****  */
ARM GAS  C:\Users\walker\AppData\Local\Temp\ccbkesbg.s 			page 16


 236:Middlewares/Third_Party/CANopenNode/301/CO_driver.h **** static inline uint8_t CO_CANrxMsg_readDLC(void *rxMsg) {
 237:Middlewares/Third_Party/CANopenNode/301/CO_driver.h ****     return 0;
 238:Middlewares/Third_Party/CANopenNode/301/CO_driver.h **** }
 239:Middlewares/Third_Party/CANopenNode/301/CO_driver.h **** 
 240:Middlewares/Third_Party/CANopenNode/301/CO_driver.h **** /**
 241:Middlewares/Third_Party/CANopenNode/301/CO_driver.h ****  * CANrx_callback() can read pointer to data from received CAN message
 242:Middlewares/Third_Party/CANopenNode/301/CO_driver.h ****  *
 243:Middlewares/Third_Party/CANopenNode/301/CO_driver.h ****  * See also CO_CANrxMsg_readIdent():
 244:Middlewares/Third_Party/CANopenNode/301/CO_driver.h ****  *
 245:Middlewares/Third_Party/CANopenNode/301/CO_driver.h ****  * @param rxMsg Pointer to received message
 246:Middlewares/Third_Party/CANopenNode/301/CO_driver.h ****  * @return pointer to data buffer
 247:Middlewares/Third_Party/CANopenNode/301/CO_driver.h ****  */
 248:Middlewares/Third_Party/CANopenNode/301/CO_driver.h **** static inline uint8_t *CO_CANrxMsg_readData(void *rxMsg) {
 249:Middlewares/Third_Party/CANopenNode/301/CO_driver.h ****     return NULL;
 250:Middlewares/Third_Party/CANopenNode/301/CO_driver.h **** }
 251:Middlewares/Third_Party/CANopenNode/301/CO_driver.h **** 
 252:Middlewares/Third_Party/CANopenNode/301/CO_driver.h **** /**
 253:Middlewares/Third_Party/CANopenNode/301/CO_driver.h ****  * Configuration object for CAN received message for specific \ref CO_obj
 254:Middlewares/Third_Party/CANopenNode/301/CO_driver.h ****  * "CANopenNode Object".
 255:Middlewares/Third_Party/CANopenNode/301/CO_driver.h ****  *
 256:Middlewares/Third_Party/CANopenNode/301/CO_driver.h ****  * Must be defined in the **CO_driver_target.h** file.
 257:Middlewares/Third_Party/CANopenNode/301/CO_driver.h ****  *
 258:Middlewares/Third_Party/CANopenNode/301/CO_driver.h ****  * Data fields of this structure are used exclusively by the driver. Usually it
 259:Middlewares/Third_Party/CANopenNode/301/CO_driver.h ****  * has the following data fields, but they may differ for different
 260:Middlewares/Third_Party/CANopenNode/301/CO_driver.h ****  * microcontrollers. Array of multiple CO_CANrx_t objects is included inside
 261:Middlewares/Third_Party/CANopenNode/301/CO_driver.h ****  * CO_CANmodule_t.
 262:Middlewares/Third_Party/CANopenNode/301/CO_driver.h ****  */
 263:Middlewares/Third_Party/CANopenNode/301/CO_driver.h **** typedef struct {
 264:Middlewares/Third_Party/CANopenNode/301/CO_driver.h ****     uint16_t ident; /**< Standard CAN Identifier (bits 0..10) + RTR (bit 11) */
 265:Middlewares/Third_Party/CANopenNode/301/CO_driver.h ****     uint16_t mask;  /**< Standard CAN Identifier mask with the same alignment as
 266:Middlewares/Third_Party/CANopenNode/301/CO_driver.h ****                        ident */
 267:Middlewares/Third_Party/CANopenNode/301/CO_driver.h ****     void *object;   /**< \ref CO_obj "CANopenNode Object" initialized in from
 268:Middlewares/Third_Party/CANopenNode/301/CO_driver.h ****                        CO_CANrxBufferInit() */
 269:Middlewares/Third_Party/CANopenNode/301/CO_driver.h ****     void (*pCANrx_callback)(
 270:Middlewares/Third_Party/CANopenNode/301/CO_driver.h ****         void *object, void *message); /**< Pointer to CANrx_callback()
 271:Middlewares/Third_Party/CANopenNode/301/CO_driver.h ****                                          initialized in CO_CANrxBufferInit() */
 272:Middlewares/Third_Party/CANopenNode/301/CO_driver.h **** } CO_CANrx_t;
 273:Middlewares/Third_Party/CANopenNode/301/CO_driver.h **** /** @} */
 274:Middlewares/Third_Party/CANopenNode/301/CO_driver.h **** 
 275:Middlewares/Third_Party/CANopenNode/301/CO_driver.h **** 
 276:Middlewares/Third_Party/CANopenNode/301/CO_driver.h **** /**
 277:Middlewares/Third_Party/CANopenNode/301/CO_driver.h ****  * @defgroup CO_CAN_Message_transmission Transmission of CAN messages
 278:Middlewares/Third_Party/CANopenNode/301/CO_driver.h ****  * @{
 279:Middlewares/Third_Party/CANopenNode/301/CO_driver.h ****  *
 280:Middlewares/Third_Party/CANopenNode/301/CO_driver.h ****  * Target specific definitions and description of CAN message transmission
 281:Middlewares/Third_Party/CANopenNode/301/CO_driver.h ****  *
 282:Middlewares/Third_Party/CANopenNode/301/CO_driver.h ****  * If \ref CO_obj "CANopenNode Object" needs transmitting CAN message, it must
 283:Middlewares/Third_Party/CANopenNode/301/CO_driver.h ****  * first configure its own CO_CANtx_t object with the CO_CANtxBufferInit()
 284:Middlewares/Third_Party/CANopenNode/301/CO_driver.h ****  * function. CAN message can then be sent with CO_CANsend() function. If at that
 285:Middlewares/Third_Party/CANopenNode/301/CO_driver.h ****  * moment CAN transmit buffer inside microcontroller's CAN module is free,
 286:Middlewares/Third_Party/CANopenNode/301/CO_driver.h ****  * message is copied directly to the CAN module. Otherwise CO_CANsend() function
 287:Middlewares/Third_Party/CANopenNode/301/CO_driver.h ****  * sets _bufferFull_ flag to true. Message will be then sent by CAN TX interrupt
 288:Middlewares/Third_Party/CANopenNode/301/CO_driver.h ****  * as soon as CAN module is freed. Until message is not copied to CAN module,
 289:Middlewares/Third_Party/CANopenNode/301/CO_driver.h ****  * its contents must not change. If there are multiple CO_CANtx_t objects with
 290:Middlewares/Third_Party/CANopenNode/301/CO_driver.h ****  * _bufferFull_ flag set to true, then CO_CANtx_t with lower index will be sent
 291:Middlewares/Third_Party/CANopenNode/301/CO_driver.h ****  * first.
 292:Middlewares/Third_Party/CANopenNode/301/CO_driver.h ****  */
ARM GAS  C:\Users\walker\AppData\Local\Temp\ccbkesbg.s 			page 17


 293:Middlewares/Third_Party/CANopenNode/301/CO_driver.h **** 
 294:Middlewares/Third_Party/CANopenNode/301/CO_driver.h **** /**
 295:Middlewares/Third_Party/CANopenNode/301/CO_driver.h ****  * Configuration object for CAN transmit message for specific \ref CO_obj
 296:Middlewares/Third_Party/CANopenNode/301/CO_driver.h ****  * "CANopenNode Object".
 297:Middlewares/Third_Party/CANopenNode/301/CO_driver.h ****  *
 298:Middlewares/Third_Party/CANopenNode/301/CO_driver.h ****  * Must be defined in the **CO_driver_target.h** file.
 299:Middlewares/Third_Party/CANopenNode/301/CO_driver.h ****  *
 300:Middlewares/Third_Party/CANopenNode/301/CO_driver.h ****  * Data fields of this structure are used exclusively by the driver. Usually it
 301:Middlewares/Third_Party/CANopenNode/301/CO_driver.h ****  * has the following data fields, but they may differ for different
 302:Middlewares/Third_Party/CANopenNode/301/CO_driver.h ****  * microcontrollers. Array of multiple CO_CANtx_t objects is included inside
 303:Middlewares/Third_Party/CANopenNode/301/CO_driver.h ****  * CO_CANmodule_t.
 304:Middlewares/Third_Party/CANopenNode/301/CO_driver.h ****  */
 305:Middlewares/Third_Party/CANopenNode/301/CO_driver.h **** typedef struct {
 306:Middlewares/Third_Party/CANopenNode/301/CO_driver.h ****     uint32_t ident;             /**< CAN identifier as aligned in CAN module */
 307:Middlewares/Third_Party/CANopenNode/301/CO_driver.h ****     uint8_t DLC;                /**< Length of CAN message */
 308:Middlewares/Third_Party/CANopenNode/301/CO_driver.h ****     uint8_t data[8];            /**< 8 data bytes */
 309:Middlewares/Third_Party/CANopenNode/301/CO_driver.h ****     volatile bool_t bufferFull; /**< True if previous message is still in the
 310:Middlewares/Third_Party/CANopenNode/301/CO_driver.h ****                                      buffer */
 311:Middlewares/Third_Party/CANopenNode/301/CO_driver.h ****     volatile bool_t syncFlag;   /**< Synchronous PDO messages has this flag set.
 312:Middlewares/Third_Party/CANopenNode/301/CO_driver.h ****                   It prevents them to be sent outside the synchronous window */
 313:Middlewares/Third_Party/CANopenNode/301/CO_driver.h **** } CO_CANtx_t;
 314:Middlewares/Third_Party/CANopenNode/301/CO_driver.h **** /** @} */
 315:Middlewares/Third_Party/CANopenNode/301/CO_driver.h **** 
 316:Middlewares/Third_Party/CANopenNode/301/CO_driver.h **** 
 317:Middlewares/Third_Party/CANopenNode/301/CO_driver.h **** /**
 318:Middlewares/Third_Party/CANopenNode/301/CO_driver.h ****  * Complete CAN module object.
 319:Middlewares/Third_Party/CANopenNode/301/CO_driver.h ****  *
 320:Middlewares/Third_Party/CANopenNode/301/CO_driver.h ****  * Must be defined in the **CO_driver_target.h** file.
 321:Middlewares/Third_Party/CANopenNode/301/CO_driver.h ****  *
 322:Middlewares/Third_Party/CANopenNode/301/CO_driver.h ****  * Usually it has the following data fields, but they may differ for different
 323:Middlewares/Third_Party/CANopenNode/301/CO_driver.h ****  * microcontrollers.
 324:Middlewares/Third_Party/CANopenNode/301/CO_driver.h ****  */
 325:Middlewares/Third_Party/CANopenNode/301/CO_driver.h **** typedef struct {
 326:Middlewares/Third_Party/CANopenNode/301/CO_driver.h ****     void *CANptr;                      /**< From CO_CANmodule_init() */
 327:Middlewares/Third_Party/CANopenNode/301/CO_driver.h ****     CO_CANrx_t *rxArray;               /**< From CO_CANmodule_init() */
 328:Middlewares/Third_Party/CANopenNode/301/CO_driver.h ****     uint16_t rxSize;                   /**< From CO_CANmodule_init() */
 329:Middlewares/Third_Party/CANopenNode/301/CO_driver.h ****     CO_CANtx_t *txArray;               /**< From CO_CANmodule_init() */
 330:Middlewares/Third_Party/CANopenNode/301/CO_driver.h ****     uint16_t txSize;                   /**< From CO_CANmodule_init() */
 331:Middlewares/Third_Party/CANopenNode/301/CO_driver.h ****     uint16_t CANerrorStatus;           /**< CAN error status bitfield,
 332:Middlewares/Third_Party/CANopenNode/301/CO_driver.h ****                                             see @ref CO_CAN_ERR_status_t */
 333:Middlewares/Third_Party/CANopenNode/301/CO_driver.h ****     volatile bool_t CANnormal;         /**< CAN module is in normal mode */
 334:Middlewares/Third_Party/CANopenNode/301/CO_driver.h ****     volatile bool_t useCANrxFilters;   /**< Value different than zero indicates,
 335:Middlewares/Third_Party/CANopenNode/301/CO_driver.h ****             that CAN module hardware filters are used for CAN reception. If
 336:Middlewares/Third_Party/CANopenNode/301/CO_driver.h ****             there is not enough hardware filters, they won't be used. In this
 337:Middlewares/Third_Party/CANopenNode/301/CO_driver.h ****             case will be *all* received CAN messages processed by software. */
 338:Middlewares/Third_Party/CANopenNode/301/CO_driver.h ****     volatile bool_t bufferInhibitFlag; /**< If flag is true, then message in
 339:Middlewares/Third_Party/CANopenNode/301/CO_driver.h ****             transmit buffer is synchronous PDO message, which will be aborted,
 340:Middlewares/Third_Party/CANopenNode/301/CO_driver.h ****             if CO_clearPendingSyncPDOs() function will be called by application.
 341:Middlewares/Third_Party/CANopenNode/301/CO_driver.h ****             This may be necessary if Synchronous window time was expired. */
 342:Middlewares/Third_Party/CANopenNode/301/CO_driver.h ****     volatile bool_t firstCANtxMessage; /**< Equal to 1, when the first
 343:Middlewares/Third_Party/CANopenNode/301/CO_driver.h ****             transmitted message (bootup message) is in CAN TX buffers */
 344:Middlewares/Third_Party/CANopenNode/301/CO_driver.h ****     volatile uint16_t CANtxCount;      /**< Number of messages in transmit
 345:Middlewares/Third_Party/CANopenNode/301/CO_driver.h ****             buffer, which are waiting to be copied to the CAN module */
 346:Middlewares/Third_Party/CANopenNode/301/CO_driver.h ****     uint32_t errOld;                   /**< Previous state of CAN errors */
 347:Middlewares/Third_Party/CANopenNode/301/CO_driver.h **** } CO_CANmodule_t;
 348:Middlewares/Third_Party/CANopenNode/301/CO_driver.h **** 
 349:Middlewares/Third_Party/CANopenNode/301/CO_driver.h **** 
ARM GAS  C:\Users\walker\AppData\Local\Temp\ccbkesbg.s 			page 18


 350:Middlewares/Third_Party/CANopenNode/301/CO_driver.h **** /**
 351:Middlewares/Third_Party/CANopenNode/301/CO_driver.h ****  * Data storage object for one entry.
 352:Middlewares/Third_Party/CANopenNode/301/CO_driver.h ****  *
 353:Middlewares/Third_Party/CANopenNode/301/CO_driver.h ****  * Must be defined in the **CO_driver_target.h** file.
 354:Middlewares/Third_Party/CANopenNode/301/CO_driver.h ****  *
 355:Middlewares/Third_Party/CANopenNode/301/CO_driver.h ****  * For more information on Data storage see @ref CO_storage or **CO_storage.h**
 356:Middlewares/Third_Party/CANopenNode/301/CO_driver.h ****  * file. Structure members documented here are always required or required with
 357:Middlewares/Third_Party/CANopenNode/301/CO_driver.h ****  * @ref CO_storage_eeprom. Target system may add own additional, hardware
 358:Middlewares/Third_Party/CANopenNode/301/CO_driver.h ****  * specific variables.
 359:Middlewares/Third_Party/CANopenNode/301/CO_driver.h ****  */
 360:Middlewares/Third_Party/CANopenNode/301/CO_driver.h **** typedef struct {
 361:Middlewares/Third_Party/CANopenNode/301/CO_driver.h ****     /** Address of data to store, always required. */
 362:Middlewares/Third_Party/CANopenNode/301/CO_driver.h ****     void *addr;
 363:Middlewares/Third_Party/CANopenNode/301/CO_driver.h ****     /** Length of data to store, always required. */
 364:Middlewares/Third_Party/CANopenNode/301/CO_driver.h ****     size_t len;
 365:Middlewares/Third_Party/CANopenNode/301/CO_driver.h ****     /** Sub index in OD objects 1010 and 1011, from 2 to 127. Writing
 366:Middlewares/Third_Party/CANopenNode/301/CO_driver.h ****      * 0x65766173 to 1010,subIndexOD will store data to non-volatile memory.
 367:Middlewares/Third_Party/CANopenNode/301/CO_driver.h ****      * Writing 0x64616F6C to 1011,subIndexOD will restore default data, always
 368:Middlewares/Third_Party/CANopenNode/301/CO_driver.h ****      * required. */
 369:Middlewares/Third_Party/CANopenNode/301/CO_driver.h ****     uint8_t subIndexOD;
 370:Middlewares/Third_Party/CANopenNode/301/CO_driver.h ****     /** Attribute from @ref CO_storage_attributes_t, always required. */
 371:Middlewares/Third_Party/CANopenNode/301/CO_driver.h ****     uint8_t attr;
 372:Middlewares/Third_Party/CANopenNode/301/CO_driver.h ****     /** Pointer to storage module, target system specific usage, required with
 373:Middlewares/Third_Party/CANopenNode/301/CO_driver.h ****      * @ref CO_storage_eeprom. */
 374:Middlewares/Third_Party/CANopenNode/301/CO_driver.h ****     void *storageModule;
 375:Middlewares/Third_Party/CANopenNode/301/CO_driver.h ****     /** CRC checksum of the data stored in eeprom, set on store, required with
 376:Middlewares/Third_Party/CANopenNode/301/CO_driver.h ****      * @ref CO_storage_eeprom. */
 377:Middlewares/Third_Party/CANopenNode/301/CO_driver.h ****     uint16_t crc;
 378:Middlewares/Third_Party/CANopenNode/301/CO_driver.h ****     /** Address of entry signature inside eeprom, set by init, required with
 379:Middlewares/Third_Party/CANopenNode/301/CO_driver.h ****      * @ref CO_storage_eeprom. */
 380:Middlewares/Third_Party/CANopenNode/301/CO_driver.h ****     size_t eepromAddrSignature;
 381:Middlewares/Third_Party/CANopenNode/301/CO_driver.h ****     /** Address of data inside eeprom, set by init, required with
 382:Middlewares/Third_Party/CANopenNode/301/CO_driver.h ****      * @ref CO_storage_eeprom. */
 383:Middlewares/Third_Party/CANopenNode/301/CO_driver.h ****     size_t eepromAddr;
 384:Middlewares/Third_Party/CANopenNode/301/CO_driver.h ****     /** Offset of next byte being updated by automatic storage, required with
 385:Middlewares/Third_Party/CANopenNode/301/CO_driver.h ****      * @ref CO_storage_eeprom. */
 386:Middlewares/Third_Party/CANopenNode/301/CO_driver.h ****     size_t offset;
 387:Middlewares/Third_Party/CANopenNode/301/CO_driver.h ****     /** Additional target specific parameters, optional. */
 388:Middlewares/Third_Party/CANopenNode/301/CO_driver.h ****     void *additionalParameters;
 389:Middlewares/Third_Party/CANopenNode/301/CO_driver.h **** } CO_storage_entry_t;
 390:Middlewares/Third_Party/CANopenNode/301/CO_driver.h **** 
 391:Middlewares/Third_Party/CANopenNode/301/CO_driver.h **** 
 392:Middlewares/Third_Party/CANopenNode/301/CO_driver.h **** /**
 393:Middlewares/Third_Party/CANopenNode/301/CO_driver.h ****  * @defgroup CO_critical_sections Critical sections
 394:Middlewares/Third_Party/CANopenNode/301/CO_driver.h ****  * @{
 395:Middlewares/Third_Party/CANopenNode/301/CO_driver.h ****  *
 396:Middlewares/Third_Party/CANopenNode/301/CO_driver.h ****  * Protection of critical sections in multi-threaded operation.
 397:Middlewares/Third_Party/CANopenNode/301/CO_driver.h ****  *
 398:Middlewares/Third_Party/CANopenNode/301/CO_driver.h ****  * CANopenNode is designed to run in different threads, as described in
 399:Middlewares/Third_Party/CANopenNode/301/CO_driver.h ****  * [README.md](index.html). Threads are implemented differently in different
 400:Middlewares/Third_Party/CANopenNode/301/CO_driver.h ****  * systems. In microcontrollers threads are interrupts with different
 401:Middlewares/Third_Party/CANopenNode/301/CO_driver.h ****  * priorities, for example. It is necessary to protect sections, where different
 402:Middlewares/Third_Party/CANopenNode/301/CO_driver.h ****  * threads access to the same resource. In simple systems interrupts or
 403:Middlewares/Third_Party/CANopenNode/301/CO_driver.h ****  * scheduler may be temporary disabled between access to the shared resource.
 404:Middlewares/Third_Party/CANopenNode/301/CO_driver.h ****  * Otherwise mutexes or semaphores can be used.
 405:Middlewares/Third_Party/CANopenNode/301/CO_driver.h ****  *
 406:Middlewares/Third_Party/CANopenNode/301/CO_driver.h ****  * #### Reentrant functions
ARM GAS  C:\Users\walker\AppData\Local\Temp\ccbkesbg.s 			page 19


 407:Middlewares/Third_Party/CANopenNode/301/CO_driver.h ****  * Functions CO_CANsend() from C_driver.h, and CO_error() from CO_Emergency.h
 408:Middlewares/Third_Party/CANopenNode/301/CO_driver.h ****  * may be called from different threads. Critical sections must be protected.
 409:Middlewares/Third_Party/CANopenNode/301/CO_driver.h ****  * Either by disabling scheduler or interrupts or by mutexes or semaphores.
 410:Middlewares/Third_Party/CANopenNode/301/CO_driver.h ****  * Lock/unlock macro is called with pointer to CAN module, which may be used
 411:Middlewares/Third_Party/CANopenNode/301/CO_driver.h ****  * inside.
 412:Middlewares/Third_Party/CANopenNode/301/CO_driver.h ****  *
 413:Middlewares/Third_Party/CANopenNode/301/CO_driver.h ****  * #### Object Dictionary variables
 414:Middlewares/Third_Party/CANopenNode/301/CO_driver.h ****  * In general, there are two threads, which accesses OD variables: mainline
 415:Middlewares/Third_Party/CANopenNode/301/CO_driver.h ****  * (initialization, storage, SDO access) and timer (PDO access). CANopenNode
 416:Middlewares/Third_Party/CANopenNode/301/CO_driver.h ****  * uses locking mechanism, where SDO server (or other mainline code) prevents
 417:Middlewares/Third_Party/CANopenNode/301/CO_driver.h ****  * execution of the real-time thread at the moment it reads or writes OD
 418:Middlewares/Third_Party/CANopenNode/301/CO_driver.h ****  * variable. CO_LOCK_OD(CAN_MODULE) and CO_UNLOCK_OD(CAN_MODULE) macros
 419:Middlewares/Third_Party/CANopenNode/301/CO_driver.h ****  * are used to protect:
 420:Middlewares/Third_Party/CANopenNode/301/CO_driver.h ****  * - Whole real-time thread,
 421:Middlewares/Third_Party/CANopenNode/301/CO_driver.h ****  * - SDO server protects read/write access to OD variable, if specific OD
 422:Middlewares/Third_Party/CANopenNode/301/CO_driver.h ****  *   variable has ODA_TRPDO or ODA_TRSRDO from @ref OD_attributes_t set. If
 423:Middlewares/Third_Party/CANopenNode/301/CO_driver.h ****  *   those attributes are not set, OD variable is not locked by SDO server.
 424:Middlewares/Third_Party/CANopenNode/301/CO_driver.h ****  *   Locking of long OD variables, not accessible from real-time thread, may
 425:Middlewares/Third_Party/CANopenNode/301/CO_driver.h ****  *   block RT thread.
 426:Middlewares/Third_Party/CANopenNode/301/CO_driver.h ****  * - Any mainline code, which accesses PDO-mappable OD variable, must protect
 427:Middlewares/Third_Party/CANopenNode/301/CO_driver.h ****  *   read/write with locking macros. Use @ref OD_mappable() for check.
 428:Middlewares/Third_Party/CANopenNode/301/CO_driver.h ****  * - Other cases, where non-PDO-mappable OD variable is used inside real-time
 429:Middlewares/Third_Party/CANopenNode/301/CO_driver.h ****  *   thread by some other part of the user application must be considered with
 430:Middlewares/Third_Party/CANopenNode/301/CO_driver.h ****  *   special care.
 431:Middlewares/Third_Party/CANopenNode/301/CO_driver.h ****  *
 432:Middlewares/Third_Party/CANopenNode/301/CO_driver.h ****  * #### Synchronization functions for CAN receive
 433:Middlewares/Third_Party/CANopenNode/301/CO_driver.h ****  * After CAN message is received, it is pre-processed in CANrx_callback(), which
 434:Middlewares/Third_Party/CANopenNode/301/CO_driver.h ****  * copies some data into appropriate object and at the end sets **new_message**
 435:Middlewares/Third_Party/CANopenNode/301/CO_driver.h ****  * flag. This flag is then pooled in another thread, which further processes the
 436:Middlewares/Third_Party/CANopenNode/301/CO_driver.h ****  * message. The problem is, that compiler optimization may shuffle memory
 437:Middlewares/Third_Party/CANopenNode/301/CO_driver.h ****  * operations, so it is necessary to ensure, that **new_message** flag is surely
 438:Middlewares/Third_Party/CANopenNode/301/CO_driver.h ****  * set at the end. It is necessary to use [Memory
 439:Middlewares/Third_Party/CANopenNode/301/CO_driver.h ****  * barrier](https://en.wikipedia.org/wiki/Memory_barrier).
 440:Middlewares/Third_Party/CANopenNode/301/CO_driver.h ****  *
 441:Middlewares/Third_Party/CANopenNode/301/CO_driver.h ****  * If receive function runs inside IRQ, no further synchronization is needed.
 442:Middlewares/Third_Party/CANopenNode/301/CO_driver.h ****  * Otherwise, some kind of synchronization has to be included. The following
 443:Middlewares/Third_Party/CANopenNode/301/CO_driver.h ****  * example uses GCC builtin memory barrier `__sync_synchronize()`. More
 444:Middlewares/Third_Party/CANopenNode/301/CO_driver.h ****  * information can be found
 445:Middlewares/Third_Party/CANopenNode/301/CO_driver.h ****  * [here](https://stackoverflow.com/questions/982129/what-does-sync-synchronize-do#982179).
 446:Middlewares/Third_Party/CANopenNode/301/CO_driver.h ****  */
 447:Middlewares/Third_Party/CANopenNode/301/CO_driver.h **** 
 448:Middlewares/Third_Party/CANopenNode/301/CO_driver.h **** /** Lock critical section in CO_CANsend() */
 449:Middlewares/Third_Party/CANopenNode/301/CO_driver.h **** #define CO_LOCK_CAN_SEND(CAN_MODULE)
 450:Middlewares/Third_Party/CANopenNode/301/CO_driver.h **** /** Unlock critical section in CO_CANsend() */
 451:Middlewares/Third_Party/CANopenNode/301/CO_driver.h **** #define CO_UNLOCK_CAN_SEND(CAN_MODULE)
 452:Middlewares/Third_Party/CANopenNode/301/CO_driver.h **** /** Lock critical section in CO_errorReport() or CO_errorReset() */
 453:Middlewares/Third_Party/CANopenNode/301/CO_driver.h **** #define CO_LOCK_EMCY(CAN_MODULE)
 454:Middlewares/Third_Party/CANopenNode/301/CO_driver.h **** /** Unlock critical section in CO_errorReport() or CO_errorReset() */
 455:Middlewares/Third_Party/CANopenNode/301/CO_driver.h **** #define CO_UNLOCK_EMCY(CAN_MODULE)
 456:Middlewares/Third_Party/CANopenNode/301/CO_driver.h **** /** Lock critical section when accessing Object Dictionary */
 457:Middlewares/Third_Party/CANopenNode/301/CO_driver.h **** #define CO_LOCK_OD(CAN_MODULE)
 458:Middlewares/Third_Party/CANopenNode/301/CO_driver.h **** /** Unock critical section when accessing Object Dictionary */
 459:Middlewares/Third_Party/CANopenNode/301/CO_driver.h **** #define CO_UNLOCK_OD(CAN_MODULE)
 460:Middlewares/Third_Party/CANopenNode/301/CO_driver.h **** 
 461:Middlewares/Third_Party/CANopenNode/301/CO_driver.h **** /** Check if new message has arrived */
 462:Middlewares/Third_Party/CANopenNode/301/CO_driver.h **** #define CO_FLAG_READ(rxNew) ((rxNew) != NULL)
 463:Middlewares/Third_Party/CANopenNode/301/CO_driver.h **** /** Set new message flag */
ARM GAS  C:\Users\walker\AppData\Local\Temp\ccbkesbg.s 			page 20


 464:Middlewares/Third_Party/CANopenNode/301/CO_driver.h **** #define CO_FLAG_SET(rxNew) { __sync_synchronize(); rxNew = (void *)1L; }
 465:Middlewares/Third_Party/CANopenNode/301/CO_driver.h **** /** Clear new message flag */
 466:Middlewares/Third_Party/CANopenNode/301/CO_driver.h **** #define CO_FLAG_CLEAR(rxNew) { __sync_synchronize(); rxNew = NULL; }
 467:Middlewares/Third_Party/CANopenNode/301/CO_driver.h **** 
 468:Middlewares/Third_Party/CANopenNode/301/CO_driver.h **** /** @} */
 469:Middlewares/Third_Party/CANopenNode/301/CO_driver.h **** #endif /* CO_DOXYGEN */
 470:Middlewares/Third_Party/CANopenNode/301/CO_driver.h **** 
 471:Middlewares/Third_Party/CANopenNode/301/CO_driver.h **** 
 472:Middlewares/Third_Party/CANopenNode/301/CO_driver.h **** /**
 473:Middlewares/Third_Party/CANopenNode/301/CO_driver.h ****  * Default CANopen identifiers.
 474:Middlewares/Third_Party/CANopenNode/301/CO_driver.h ****  *
 475:Middlewares/Third_Party/CANopenNode/301/CO_driver.h ****  * Default CANopen identifiers for CANopen communication objects. Same as
 476:Middlewares/Third_Party/CANopenNode/301/CO_driver.h ****  * 11-bit addresses of CAN messages. These are default identifiers and
 477:Middlewares/Third_Party/CANopenNode/301/CO_driver.h ****  * can be changed in CANopen. Especially PDO identifiers are configured
 478:Middlewares/Third_Party/CANopenNode/301/CO_driver.h ****  * in PDO linking phase of the CANopen network configuration.
 479:Middlewares/Third_Party/CANopenNode/301/CO_driver.h ****  */
 480:Middlewares/Third_Party/CANopenNode/301/CO_driver.h **** typedef enum {
 481:Middlewares/Third_Party/CANopenNode/301/CO_driver.h ****     CO_CAN_ID_NMT_SERVICE = 0x000, /**< 0x000, Network management */
 482:Middlewares/Third_Party/CANopenNode/301/CO_driver.h ****     CO_CAN_ID_GFC = 0x001,         /**< 0x001, Global fail-safe command */
 483:Middlewares/Third_Party/CANopenNode/301/CO_driver.h ****     CO_CAN_ID_SYNC = 0x080,        /**< 0x080, Synchronous message */
 484:Middlewares/Third_Party/CANopenNode/301/CO_driver.h ****     CO_CAN_ID_EMERGENCY = 0x080,   /**< 0x080, Emergency messages (+nodeID) */
 485:Middlewares/Third_Party/CANopenNode/301/CO_driver.h ****     CO_CAN_ID_TIME = 0x100,        /**< 0x100, Time message */
 486:Middlewares/Third_Party/CANopenNode/301/CO_driver.h ****     CO_CAN_ID_SRDO_1 = 0x0FF,      /**< 0x0FF, Default SRDO1 (+2*nodeID) */
 487:Middlewares/Third_Party/CANopenNode/301/CO_driver.h ****     CO_CAN_ID_TPDO_1 = 0x180,      /**< 0x180, Default TPDO1 (+nodeID) */
 488:Middlewares/Third_Party/CANopenNode/301/CO_driver.h ****     CO_CAN_ID_RPDO_1 = 0x200,      /**< 0x200, Default RPDO1 (+nodeID) */
 489:Middlewares/Third_Party/CANopenNode/301/CO_driver.h ****     CO_CAN_ID_TPDO_2 = 0x280,      /**< 0x280, Default TPDO2 (+nodeID) */
 490:Middlewares/Third_Party/CANopenNode/301/CO_driver.h ****     CO_CAN_ID_RPDO_2 = 0x300,      /**< 0x300, Default RPDO2 (+nodeID) */
 491:Middlewares/Third_Party/CANopenNode/301/CO_driver.h ****     CO_CAN_ID_TPDO_3 = 0x380,      /**< 0x380, Default TPDO3 (+nodeID) */
 492:Middlewares/Third_Party/CANopenNode/301/CO_driver.h ****     CO_CAN_ID_RPDO_3 = 0x400,      /**< 0x400, Default RPDO3 (+nodeID) */
 493:Middlewares/Third_Party/CANopenNode/301/CO_driver.h ****     CO_CAN_ID_TPDO_4 = 0x480,      /**< 0x480, Default TPDO4 (+nodeID) */
 494:Middlewares/Third_Party/CANopenNode/301/CO_driver.h ****     CO_CAN_ID_RPDO_4 = 0x500,      /**< 0x500, Default RPDO5 (+nodeID) */
 495:Middlewares/Third_Party/CANopenNode/301/CO_driver.h ****     CO_CAN_ID_SDO_SRV = 0x580, /**< 0x580, SDO response from server (+nodeID) */
 496:Middlewares/Third_Party/CANopenNode/301/CO_driver.h ****     CO_CAN_ID_SDO_CLI = 0x600, /**< 0x600, SDO request from client (+nodeID) */
 497:Middlewares/Third_Party/CANopenNode/301/CO_driver.h ****     CO_CAN_ID_HEARTBEAT = 0x700,   /**< 0x700, Heartbeat message */
 498:Middlewares/Third_Party/CANopenNode/301/CO_driver.h ****     CO_CAN_ID_LSS_SLV = 0x7E4,     /**< 0x7E4, LSS response from slave */
 499:Middlewares/Third_Party/CANopenNode/301/CO_driver.h ****     CO_CAN_ID_LSS_MST = 0x7E5      /**< 0x7E5, LSS request from master */
 500:Middlewares/Third_Party/CANopenNode/301/CO_driver.h **** } CO_Default_CAN_ID_t;
 501:Middlewares/Third_Party/CANopenNode/301/CO_driver.h **** 
 502:Middlewares/Third_Party/CANopenNode/301/CO_driver.h **** 
 503:Middlewares/Third_Party/CANopenNode/301/CO_driver.h **** /**
 504:Middlewares/Third_Party/CANopenNode/301/CO_driver.h ****  * Restricted CAN-IDs
 505:Middlewares/Third_Party/CANopenNode/301/CO_driver.h ****  *
 506:Middlewares/Third_Party/CANopenNode/301/CO_driver.h ****  * Macro for verifying 'Restricted CAN-IDs', as specified by standard CiA301.
 507:Middlewares/Third_Party/CANopenNode/301/CO_driver.h ****  * They shall not be used for SYNC, TIME, EMCY, PDO and SDO.
 508:Middlewares/Third_Party/CANopenNode/301/CO_driver.h ****  */
 509:Middlewares/Third_Party/CANopenNode/301/CO_driver.h **** #ifndef CO_IS_RESTRICTED_CAN_ID
 510:Middlewares/Third_Party/CANopenNode/301/CO_driver.h **** #define CO_IS_RESTRICTED_CAN_ID(CAN_ID) ((CAN_ID) <= 0x7F \
 511:Middlewares/Third_Party/CANopenNode/301/CO_driver.h ****         || ((CAN_ID) >= 0x101 && (CAN_ID) <= 0x180) \
 512:Middlewares/Third_Party/CANopenNode/301/CO_driver.h ****         || ((CAN_ID) >= 0x581 && (CAN_ID) <= 0x5FF) \
 513:Middlewares/Third_Party/CANopenNode/301/CO_driver.h ****         || ((CAN_ID) >= 0x601 && (CAN_ID) <= 0x67F) \
 514:Middlewares/Third_Party/CANopenNode/301/CO_driver.h ****         || ((CAN_ID) >= 0x6E0 && (CAN_ID) <= 0x6FF) \
 515:Middlewares/Third_Party/CANopenNode/301/CO_driver.h ****         || (CAN_ID) >= 0x701)
 516:Middlewares/Third_Party/CANopenNode/301/CO_driver.h **** #endif
 517:Middlewares/Third_Party/CANopenNode/301/CO_driver.h **** 
 518:Middlewares/Third_Party/CANopenNode/301/CO_driver.h **** 
 519:Middlewares/Third_Party/CANopenNode/301/CO_driver.h **** /**
 520:Middlewares/Third_Party/CANopenNode/301/CO_driver.h ****  * CAN error status bitmasks.
ARM GAS  C:\Users\walker\AppData\Local\Temp\ccbkesbg.s 			page 21


 521:Middlewares/Third_Party/CANopenNode/301/CO_driver.h ****  *
 522:Middlewares/Third_Party/CANopenNode/301/CO_driver.h ****  * CAN warning level is reached, if CAN transmit or receive error counter is
 523:Middlewares/Third_Party/CANopenNode/301/CO_driver.h ****  * more or equal to 96. CAN passive level is reached, if counters are more or
 524:Middlewares/Third_Party/CANopenNode/301/CO_driver.h ****  * equal to 128. Transmitter goes in error state 'bus off' if transmit error
 525:Middlewares/Third_Party/CANopenNode/301/CO_driver.h ****  * counter is more or equal to 256.
 526:Middlewares/Third_Party/CANopenNode/301/CO_driver.h ****  */
 527:Middlewares/Third_Party/CANopenNode/301/CO_driver.h **** typedef enum {
 528:Middlewares/Third_Party/CANopenNode/301/CO_driver.h ****     CO_CAN_ERRTX_WARNING = 0x0001,  /**< 0x0001, CAN transmitter warning */
 529:Middlewares/Third_Party/CANopenNode/301/CO_driver.h ****     CO_CAN_ERRTX_PASSIVE = 0x0002,  /**< 0x0002, CAN transmitter passive */
 530:Middlewares/Third_Party/CANopenNode/301/CO_driver.h ****     CO_CAN_ERRTX_BUS_OFF = 0x0004,  /**< 0x0004, CAN transmitter bus off */
 531:Middlewares/Third_Party/CANopenNode/301/CO_driver.h ****     CO_CAN_ERRTX_OVERFLOW = 0x0008, /**< 0x0008, CAN transmitter overflow */
 532:Middlewares/Third_Party/CANopenNode/301/CO_driver.h **** 
 533:Middlewares/Third_Party/CANopenNode/301/CO_driver.h ****     CO_CAN_ERRTX_PDO_LATE = 0x0080, /**< 0x0080, TPDO is outside sync window */
 534:Middlewares/Third_Party/CANopenNode/301/CO_driver.h **** 
 535:Middlewares/Third_Party/CANopenNode/301/CO_driver.h ****     CO_CAN_ERRRX_WARNING = 0x0100,  /**< 0x0100, CAN receiver warning */
 536:Middlewares/Third_Party/CANopenNode/301/CO_driver.h ****     CO_CAN_ERRRX_PASSIVE = 0x0200,  /**< 0x0200, CAN receiver passive */
 537:Middlewares/Third_Party/CANopenNode/301/CO_driver.h ****     CO_CAN_ERRRX_OVERFLOW = 0x0800, /**< 0x0800, CAN receiver overflow */
 538:Middlewares/Third_Party/CANopenNode/301/CO_driver.h **** 
 539:Middlewares/Third_Party/CANopenNode/301/CO_driver.h ****     CO_CAN_ERR_WARN_PASSIVE = 0x0303/**< 0x0303, combination */
 540:Middlewares/Third_Party/CANopenNode/301/CO_driver.h **** } CO_CAN_ERR_status_t;
 541:Middlewares/Third_Party/CANopenNode/301/CO_driver.h **** 
 542:Middlewares/Third_Party/CANopenNode/301/CO_driver.h **** 
 543:Middlewares/Third_Party/CANopenNode/301/CO_driver.h **** /**
 544:Middlewares/Third_Party/CANopenNode/301/CO_driver.h ****  * Return values of some CANopen functions. If function was executed
 545:Middlewares/Third_Party/CANopenNode/301/CO_driver.h ****  * successfully it returns 0 otherwise it returns <0.
 546:Middlewares/Third_Party/CANopenNode/301/CO_driver.h ****  */
 547:Middlewares/Third_Party/CANopenNode/301/CO_driver.h **** typedef enum {
 548:Middlewares/Third_Party/CANopenNode/301/CO_driver.h ****     CO_ERROR_NO = 0,                /**< Operation completed successfully */
 549:Middlewares/Third_Party/CANopenNode/301/CO_driver.h ****     CO_ERROR_ILLEGAL_ARGUMENT = -1, /**< Error in function arguments */
 550:Middlewares/Third_Party/CANopenNode/301/CO_driver.h ****     CO_ERROR_OUT_OF_MEMORY = -2,    /**< Memory allocation failed */
 551:Middlewares/Third_Party/CANopenNode/301/CO_driver.h ****     CO_ERROR_TIMEOUT = -3,          /**< Function timeout */
 552:Middlewares/Third_Party/CANopenNode/301/CO_driver.h ****     CO_ERROR_ILLEGAL_BAUDRATE = -4, /**< Illegal baudrate passed to function
 553:Middlewares/Third_Party/CANopenNode/301/CO_driver.h ****                                          CO_CANmodule_init() */
 554:Middlewares/Third_Party/CANopenNode/301/CO_driver.h ****     CO_ERROR_RX_OVERFLOW = -5,      /**< Previous message was not processed
 555:Middlewares/Third_Party/CANopenNode/301/CO_driver.h ****                                          yet */
 556:Middlewares/Third_Party/CANopenNode/301/CO_driver.h ****     CO_ERROR_RX_PDO_OVERFLOW = -6,  /**< previous PDO was not processed yet */
 557:Middlewares/Third_Party/CANopenNode/301/CO_driver.h ****     CO_ERROR_RX_MSG_LENGTH = -7,    /**< Wrong receive message length */
 558:Middlewares/Third_Party/CANopenNode/301/CO_driver.h ****     CO_ERROR_RX_PDO_LENGTH = -8,    /**< Wrong receive PDO length */
 559:Middlewares/Third_Party/CANopenNode/301/CO_driver.h ****     CO_ERROR_TX_OVERFLOW = -9,      /**< Previous message is still waiting,
 560:Middlewares/Third_Party/CANopenNode/301/CO_driver.h ****                                          buffer full */
 561:Middlewares/Third_Party/CANopenNode/301/CO_driver.h ****     CO_ERROR_TX_PDO_WINDOW = -10,   /**< Synchronous TPDO is outside window */
 562:Middlewares/Third_Party/CANopenNode/301/CO_driver.h ****     CO_ERROR_TX_UNCONFIGURED = -11, /**< Transmit buffer was not configured
 563:Middlewares/Third_Party/CANopenNode/301/CO_driver.h ****                                          properly */
 564:Middlewares/Third_Party/CANopenNode/301/CO_driver.h ****     CO_ERROR_OD_PARAMETERS = -12,   /**< Error in Object Dictionary parameters*/
 565:Middlewares/Third_Party/CANopenNode/301/CO_driver.h ****     CO_ERROR_DATA_CORRUPT = -13,    /**< Stored data are corrupt */
 566:Middlewares/Third_Party/CANopenNode/301/CO_driver.h ****     CO_ERROR_CRC = -14,             /**< CRC does not match */
 567:Middlewares/Third_Party/CANopenNode/301/CO_driver.h ****     CO_ERROR_TX_BUSY = -15,         /**< Sending rejected because driver is
 568:Middlewares/Third_Party/CANopenNode/301/CO_driver.h ****                                          busy. Try again */
 569:Middlewares/Third_Party/CANopenNode/301/CO_driver.h ****     CO_ERROR_WRONG_NMT_STATE = -16, /**< Command can't be processed in current
 570:Middlewares/Third_Party/CANopenNode/301/CO_driver.h ****                                          state */
 571:Middlewares/Third_Party/CANopenNode/301/CO_driver.h ****     CO_ERROR_SYSCALL = -17,         /**< Syscall failed */
 572:Middlewares/Third_Party/CANopenNode/301/CO_driver.h ****     CO_ERROR_INVALID_STATE = -18,   /**< Driver not ready */
 573:Middlewares/Third_Party/CANopenNode/301/CO_driver.h ****     CO_ERROR_NODE_ID_UNCONFIGURED_LSS = -19 /**< Node-id is in LSS unconfigured
 574:Middlewares/Third_Party/CANopenNode/301/CO_driver.h ****                                          state. If objects are handled properly,
 575:Middlewares/Third_Party/CANopenNode/301/CO_driver.h ****                                          this may not be an error. */
 576:Middlewares/Third_Party/CANopenNode/301/CO_driver.h **** } CO_ReturnError_t;
 577:Middlewares/Third_Party/CANopenNode/301/CO_driver.h **** 
ARM GAS  C:\Users\walker\AppData\Local\Temp\ccbkesbg.s 			page 22


 578:Middlewares/Third_Party/CANopenNode/301/CO_driver.h **** 
 579:Middlewares/Third_Party/CANopenNode/301/CO_driver.h **** /**
 580:Middlewares/Third_Party/CANopenNode/301/CO_driver.h ****  * Request CAN configuration (stopped) mode and *wait* until it is set.
 581:Middlewares/Third_Party/CANopenNode/301/CO_driver.h ****  *
 582:Middlewares/Third_Party/CANopenNode/301/CO_driver.h ****  * @param CANptr Pointer to CAN device
 583:Middlewares/Third_Party/CANopenNode/301/CO_driver.h ****  */
 584:Middlewares/Third_Party/CANopenNode/301/CO_driver.h **** void CO_CANsetConfigurationMode(void *CANptr);
 585:Middlewares/Third_Party/CANopenNode/301/CO_driver.h **** 
 586:Middlewares/Third_Party/CANopenNode/301/CO_driver.h **** 
 587:Middlewares/Third_Party/CANopenNode/301/CO_driver.h **** /**
 588:Middlewares/Third_Party/CANopenNode/301/CO_driver.h ****  * Request CAN normal (operational) mode and *wait* until it is set.
 589:Middlewares/Third_Party/CANopenNode/301/CO_driver.h ****  *
 590:Middlewares/Third_Party/CANopenNode/301/CO_driver.h ****  * @param CANmodule CO_CANmodule_t object.
 591:Middlewares/Third_Party/CANopenNode/301/CO_driver.h ****  */
 592:Middlewares/Third_Party/CANopenNode/301/CO_driver.h **** void CO_CANsetNormalMode(CO_CANmodule_t *CANmodule);
 593:Middlewares/Third_Party/CANopenNode/301/CO_driver.h **** 
 594:Middlewares/Third_Party/CANopenNode/301/CO_driver.h **** 
 595:Middlewares/Third_Party/CANopenNode/301/CO_driver.h **** /**
 596:Middlewares/Third_Party/CANopenNode/301/CO_driver.h ****  * Initialize CAN module object.
 597:Middlewares/Third_Party/CANopenNode/301/CO_driver.h ****  *
 598:Middlewares/Third_Party/CANopenNode/301/CO_driver.h ****  * Function must be called in the communication reset section. CAN module must
 599:Middlewares/Third_Party/CANopenNode/301/CO_driver.h ****  * be in Configuration Mode before.
 600:Middlewares/Third_Party/CANopenNode/301/CO_driver.h ****  *
 601:Middlewares/Third_Party/CANopenNode/301/CO_driver.h ****  * @param CANmodule This object will be initialized.
 602:Middlewares/Third_Party/CANopenNode/301/CO_driver.h ****  * @param CANptr Pointer to CAN device.
 603:Middlewares/Third_Party/CANopenNode/301/CO_driver.h ****  * @param rxArray Array for handling received CAN messages
 604:Middlewares/Third_Party/CANopenNode/301/CO_driver.h ****  * @param rxSize Size of the above array. Must be equal to number of receiving
 605:Middlewares/Third_Party/CANopenNode/301/CO_driver.h ****  * CAN objects.
 606:Middlewares/Third_Party/CANopenNode/301/CO_driver.h ****  * @param txArray Array for handling transmitting CAN messages
 607:Middlewares/Third_Party/CANopenNode/301/CO_driver.h ****  * @param txSize Size of the above array. Must be equal to number of
 608:Middlewares/Third_Party/CANopenNode/301/CO_driver.h ****  * transmitting CAN objects.
 609:Middlewares/Third_Party/CANopenNode/301/CO_driver.h ****  * @param CANbitRate Valid values are (in kbps): 10, 20, 50, 125, 250, 500, 800,
 610:Middlewares/Third_Party/CANopenNode/301/CO_driver.h ****  * 1000. If value is illegal, bitrate defaults to 125.
 611:Middlewares/Third_Party/CANopenNode/301/CO_driver.h ****  *
 612:Middlewares/Third_Party/CANopenNode/301/CO_driver.h ****  * Return #CO_ReturnError_t: CO_ERROR_NO or CO_ERROR_ILLEGAL_ARGUMENT.
 613:Middlewares/Third_Party/CANopenNode/301/CO_driver.h ****  */
 614:Middlewares/Third_Party/CANopenNode/301/CO_driver.h **** CO_ReturnError_t CO_CANmodule_init(CO_CANmodule_t *CANmodule,
 615:Middlewares/Third_Party/CANopenNode/301/CO_driver.h ****                                    void *CANptr,
 616:Middlewares/Third_Party/CANopenNode/301/CO_driver.h ****                                    CO_CANrx_t rxArray[],
 617:Middlewares/Third_Party/CANopenNode/301/CO_driver.h ****                                    uint16_t rxSize,
 618:Middlewares/Third_Party/CANopenNode/301/CO_driver.h ****                                    CO_CANtx_t txArray[],
 619:Middlewares/Third_Party/CANopenNode/301/CO_driver.h ****                                    uint16_t txSize,
 620:Middlewares/Third_Party/CANopenNode/301/CO_driver.h ****                                    uint16_t CANbitRate);
 621:Middlewares/Third_Party/CANopenNode/301/CO_driver.h **** 
 622:Middlewares/Third_Party/CANopenNode/301/CO_driver.h **** 
 623:Middlewares/Third_Party/CANopenNode/301/CO_driver.h **** /**
 624:Middlewares/Third_Party/CANopenNode/301/CO_driver.h ****  * Switch off CANmodule. Call at program exit.
 625:Middlewares/Third_Party/CANopenNode/301/CO_driver.h ****  *
 626:Middlewares/Third_Party/CANopenNode/301/CO_driver.h ****  * @param CANmodule CAN module object.
 627:Middlewares/Third_Party/CANopenNode/301/CO_driver.h ****  */
 628:Middlewares/Third_Party/CANopenNode/301/CO_driver.h **** void CO_CANmodule_disable(CO_CANmodule_t *CANmodule);
 629:Middlewares/Third_Party/CANopenNode/301/CO_driver.h **** 
 630:Middlewares/Third_Party/CANopenNode/301/CO_driver.h **** 
 631:Middlewares/Third_Party/CANopenNode/301/CO_driver.h **** /**
 632:Middlewares/Third_Party/CANopenNode/301/CO_driver.h ****  * Configure CAN message receive buffer.
 633:Middlewares/Third_Party/CANopenNode/301/CO_driver.h ****  *
 634:Middlewares/Third_Party/CANopenNode/301/CO_driver.h ****  * Function configures specific CAN receive buffer. It sets CAN identifier
ARM GAS  C:\Users\walker\AppData\Local\Temp\ccbkesbg.s 			page 23


 635:Middlewares/Third_Party/CANopenNode/301/CO_driver.h ****  * and connects buffer with specific object. Function must be called for each
 636:Middlewares/Third_Party/CANopenNode/301/CO_driver.h ****  * member in _rxArray_ from CO_CANmodule_t.
 637:Middlewares/Third_Party/CANopenNode/301/CO_driver.h ****  *
 638:Middlewares/Third_Party/CANopenNode/301/CO_driver.h ****  * @param CANmodule This object.
 639:Middlewares/Third_Party/CANopenNode/301/CO_driver.h ****  * @param index Index of the specific buffer in _rxArray_.
 640:Middlewares/Third_Party/CANopenNode/301/CO_driver.h ****  * @param ident 11-bit standard CAN Identifier. If two or more CANrx buffers
 641:Middlewares/Third_Party/CANopenNode/301/CO_driver.h ****  * have the same _ident_, then buffer with lowest _index_ has precedence and
 642:Middlewares/Third_Party/CANopenNode/301/CO_driver.h ****  * other CANrx buffers will be ignored.
 643:Middlewares/Third_Party/CANopenNode/301/CO_driver.h ****  * @param mask 11-bit mask for identifier. Most usually set to 0x7FF.
 644:Middlewares/Third_Party/CANopenNode/301/CO_driver.h ****  * Received message (rcvMsg) will be accepted if the following
 645:Middlewares/Third_Party/CANopenNode/301/CO_driver.h ****  * condition is true: (((rcvMsgId ^ ident) & mask) == 0).
 646:Middlewares/Third_Party/CANopenNode/301/CO_driver.h ****  * @param rtr If true, 'Remote Transmit Request' messages will be accepted.
 647:Middlewares/Third_Party/CANopenNode/301/CO_driver.h ****  * @param object CANopen object, to which buffer is connected. It will be used
 648:Middlewares/Third_Party/CANopenNode/301/CO_driver.h ****  * as an argument to CANrx_callback. Its type is (void), CANrx_callback will
 649:Middlewares/Third_Party/CANopenNode/301/CO_driver.h ****  * change its type back to the correct object type.
 650:Middlewares/Third_Party/CANopenNode/301/CO_driver.h ****  * @param CANrx_callback Pointer to function, which will be called, if received
 651:Middlewares/Third_Party/CANopenNode/301/CO_driver.h ****  * CAN message matches the identifier. It must be fast function.
 652:Middlewares/Third_Party/CANopenNode/301/CO_driver.h ****  *
 653:Middlewares/Third_Party/CANopenNode/301/CO_driver.h ****  * Return #CO_ReturnError_t: CO_ERROR_NO CO_ERROR_ILLEGAL_ARGUMENT or
 654:Middlewares/Third_Party/CANopenNode/301/CO_driver.h ****  * CO_ERROR_OUT_OF_MEMORY (not enough masks for configuration).
 655:Middlewares/Third_Party/CANopenNode/301/CO_driver.h ****  */
 656:Middlewares/Third_Party/CANopenNode/301/CO_driver.h **** CO_ReturnError_t CO_CANrxBufferInit(CO_CANmodule_t *CANmodule,
 657:Middlewares/Third_Party/CANopenNode/301/CO_driver.h ****                                     uint16_t index,
 658:Middlewares/Third_Party/CANopenNode/301/CO_driver.h ****                                     uint16_t ident,
 659:Middlewares/Third_Party/CANopenNode/301/CO_driver.h ****                                     uint16_t mask,
 660:Middlewares/Third_Party/CANopenNode/301/CO_driver.h ****                                     bool_t rtr,
 661:Middlewares/Third_Party/CANopenNode/301/CO_driver.h ****                                     void *object,
 662:Middlewares/Third_Party/CANopenNode/301/CO_driver.h ****                                     void (*CANrx_callback)(void *object,
 663:Middlewares/Third_Party/CANopenNode/301/CO_driver.h ****                                                            void *message));
 664:Middlewares/Third_Party/CANopenNode/301/CO_driver.h **** 
 665:Middlewares/Third_Party/CANopenNode/301/CO_driver.h **** 
 666:Middlewares/Third_Party/CANopenNode/301/CO_driver.h **** /**
 667:Middlewares/Third_Party/CANopenNode/301/CO_driver.h ****  * Configure CAN message transmit buffer.
 668:Middlewares/Third_Party/CANopenNode/301/CO_driver.h ****  *
 669:Middlewares/Third_Party/CANopenNode/301/CO_driver.h ****  * Function configures specific CAN transmit buffer. Function must be called for
 670:Middlewares/Third_Party/CANopenNode/301/CO_driver.h ****  * each member in _txArray_ from CO_CANmodule_t.
 671:Middlewares/Third_Party/CANopenNode/301/CO_driver.h ****  *
 672:Middlewares/Third_Party/CANopenNode/301/CO_driver.h ****  * @param CANmodule This object.
 673:Middlewares/Third_Party/CANopenNode/301/CO_driver.h ****  * @param index Index of the specific buffer in _txArray_.
 674:Middlewares/Third_Party/CANopenNode/301/CO_driver.h ****  * @param ident 11-bit standard CAN Identifier.
 675:Middlewares/Third_Party/CANopenNode/301/CO_driver.h ****  * @param rtr If true, 'Remote Transmit Request' messages will be transmitted.
 676:Middlewares/Third_Party/CANopenNode/301/CO_driver.h ****  * @param noOfBytes Length of CAN message in bytes (0 to 8 bytes).
 677:Middlewares/Third_Party/CANopenNode/301/CO_driver.h ****  * @param syncFlag This flag bit is used for synchronous TPDO messages. If it is
 678:Middlewares/Third_Party/CANopenNode/301/CO_driver.h ****  * set, message will not be sent, if current time is outside synchronous window.
 679:Middlewares/Third_Party/CANopenNode/301/CO_driver.h ****  *
 680:Middlewares/Third_Party/CANopenNode/301/CO_driver.h ****  * @return Pointer to CAN transmit message buffer. 8 bytes data array inside
 681:Middlewares/Third_Party/CANopenNode/301/CO_driver.h ****  * buffer should be written, before CO_CANsend() function is called.
 682:Middlewares/Third_Party/CANopenNode/301/CO_driver.h ****  * Zero is returned in case of wrong arguments.
 683:Middlewares/Third_Party/CANopenNode/301/CO_driver.h ****  */
 684:Middlewares/Third_Party/CANopenNode/301/CO_driver.h **** CO_CANtx_t *CO_CANtxBufferInit(CO_CANmodule_t *CANmodule,
 685:Middlewares/Third_Party/CANopenNode/301/CO_driver.h ****                                uint16_t index,
 686:Middlewares/Third_Party/CANopenNode/301/CO_driver.h ****                                uint16_t ident,
 687:Middlewares/Third_Party/CANopenNode/301/CO_driver.h ****                                bool_t rtr,
 688:Middlewares/Third_Party/CANopenNode/301/CO_driver.h ****                                uint8_t noOfBytes,
 689:Middlewares/Third_Party/CANopenNode/301/CO_driver.h ****                                bool_t syncFlag);
 690:Middlewares/Third_Party/CANopenNode/301/CO_driver.h **** 
 691:Middlewares/Third_Party/CANopenNode/301/CO_driver.h **** 
ARM GAS  C:\Users\walker\AppData\Local\Temp\ccbkesbg.s 			page 24


 692:Middlewares/Third_Party/CANopenNode/301/CO_driver.h **** /**
 693:Middlewares/Third_Party/CANopenNode/301/CO_driver.h ****  * Send CAN message.
 694:Middlewares/Third_Party/CANopenNode/301/CO_driver.h ****  *
 695:Middlewares/Third_Party/CANopenNode/301/CO_driver.h ****  * @param CANmodule This object.
 696:Middlewares/Third_Party/CANopenNode/301/CO_driver.h ****  * @param buffer Pointer to transmit buffer, returned by CO_CANtxBufferInit().
 697:Middlewares/Third_Party/CANopenNode/301/CO_driver.h ****  * Data bytes must be written in buffer before function call.
 698:Middlewares/Third_Party/CANopenNode/301/CO_driver.h ****  *
 699:Middlewares/Third_Party/CANopenNode/301/CO_driver.h ****  * @return #CO_ReturnError_t: CO_ERROR_NO, CO_ERROR_TX_OVERFLOW or
 700:Middlewares/Third_Party/CANopenNode/301/CO_driver.h ****  * CO_ERROR_TX_PDO_WINDOW (Synchronous TPDO is outside window).
 701:Middlewares/Third_Party/CANopenNode/301/CO_driver.h ****  */
 702:Middlewares/Third_Party/CANopenNode/301/CO_driver.h **** CO_ReturnError_t CO_CANsend(CO_CANmodule_t *CANmodule, CO_CANtx_t *buffer);
 703:Middlewares/Third_Party/CANopenNode/301/CO_driver.h **** 
 704:Middlewares/Third_Party/CANopenNode/301/CO_driver.h **** 
 705:Middlewares/Third_Party/CANopenNode/301/CO_driver.h **** /**
 706:Middlewares/Third_Party/CANopenNode/301/CO_driver.h ****  * Clear all synchronous TPDOs from CAN module transmit buffers.
 707:Middlewares/Third_Party/CANopenNode/301/CO_driver.h ****  *
 708:Middlewares/Third_Party/CANopenNode/301/CO_driver.h ****  * CANopen allows synchronous PDO communication only inside time between SYNC
 709:Middlewares/Third_Party/CANopenNode/301/CO_driver.h ****  * message and SYNC Window. If time is outside this window, new synchronous PDOs
 710:Middlewares/Third_Party/CANopenNode/301/CO_driver.h ****  * must not be sent and all pending sync TPDOs, which may be on CAN TX buffers,
 711:Middlewares/Third_Party/CANopenNode/301/CO_driver.h ****  * may optionally be cleared.
 712:Middlewares/Third_Party/CANopenNode/301/CO_driver.h ****  *
 713:Middlewares/Third_Party/CANopenNode/301/CO_driver.h ****  * This function checks (and aborts transmission if necessary) CAN TX buffers
 714:Middlewares/Third_Party/CANopenNode/301/CO_driver.h ****  * when it is called. Function should be called by the stack in the moment,
 715:Middlewares/Third_Party/CANopenNode/301/CO_driver.h ****  * when SYNC time was just passed out of synchronous window.
 716:Middlewares/Third_Party/CANopenNode/301/CO_driver.h ****  *
 717:Middlewares/Third_Party/CANopenNode/301/CO_driver.h ****  * @param CANmodule This object.
 718:Middlewares/Third_Party/CANopenNode/301/CO_driver.h ****  */
 719:Middlewares/Third_Party/CANopenNode/301/CO_driver.h **** void CO_CANclearPendingSyncPDOs(CO_CANmodule_t *CANmodule);
 720:Middlewares/Third_Party/CANopenNode/301/CO_driver.h **** 
 721:Middlewares/Third_Party/CANopenNode/301/CO_driver.h **** 
 722:Middlewares/Third_Party/CANopenNode/301/CO_driver.h **** /**
 723:Middlewares/Third_Party/CANopenNode/301/CO_driver.h ****  * Process can module - verify CAN errors
 724:Middlewares/Third_Party/CANopenNode/301/CO_driver.h ****  *
 725:Middlewares/Third_Party/CANopenNode/301/CO_driver.h ****  * Function must be called cyclically. It should calculate CANerrorStatus
 726:Middlewares/Third_Party/CANopenNode/301/CO_driver.h ****  * bitfield for CAN errors defined in @ref CO_CAN_ERR_status_t.
 727:Middlewares/Third_Party/CANopenNode/301/CO_driver.h ****  *
 728:Middlewares/Third_Party/CANopenNode/301/CO_driver.h ****  * @param CANmodule This object.
 729:Middlewares/Third_Party/CANopenNode/301/CO_driver.h ****  */
 730:Middlewares/Third_Party/CANopenNode/301/CO_driver.h **** void CO_CANmodule_process(CO_CANmodule_t *CANmodule);
 731:Middlewares/Third_Party/CANopenNode/301/CO_driver.h **** 
 732:Middlewares/Third_Party/CANopenNode/301/CO_driver.h **** 
 733:Middlewares/Third_Party/CANopenNode/301/CO_driver.h **** /**
 734:Middlewares/Third_Party/CANopenNode/301/CO_driver.h ****  * Get uint8_t value from memory buffer
 735:Middlewares/Third_Party/CANopenNode/301/CO_driver.h ****  *
 736:Middlewares/Third_Party/CANopenNode/301/CO_driver.h ****  * @param buf Memory buffer to get value from.
 737:Middlewares/Third_Party/CANopenNode/301/CO_driver.h ****  *
 738:Middlewares/Third_Party/CANopenNode/301/CO_driver.h ****  * @return Value
 739:Middlewares/Third_Party/CANopenNode/301/CO_driver.h ****  */
 740:Middlewares/Third_Party/CANopenNode/301/CO_driver.h **** static inline uint8_t CO_getUint8(const void *buf) {
 741:Middlewares/Third_Party/CANopenNode/301/CO_driver.h ****     uint8_t value; memmove(&value, buf, sizeof(value)); return value;
 742:Middlewares/Third_Party/CANopenNode/301/CO_driver.h **** }
 743:Middlewares/Third_Party/CANopenNode/301/CO_driver.h **** /** Get uint16_t value from memory buffer, see @ref CO_getUint8 */
 744:Middlewares/Third_Party/CANopenNode/301/CO_driver.h **** static inline uint16_t CO_getUint16(const void *buf) {
 745:Middlewares/Third_Party/CANopenNode/301/CO_driver.h ****     uint16_t value; memmove(&value, buf, sizeof(value)); return value;
 746:Middlewares/Third_Party/CANopenNode/301/CO_driver.h **** }
 747:Middlewares/Third_Party/CANopenNode/301/CO_driver.h **** /** Get uint32_t value from memory buffer, see @ref CO_getUint8 */
 748:Middlewares/Third_Party/CANopenNode/301/CO_driver.h **** static inline uint32_t CO_getUint32(const void *buf) {
ARM GAS  C:\Users\walker\AppData\Local\Temp\ccbkesbg.s 			page 25


 749:Middlewares/Third_Party/CANopenNode/301/CO_driver.h ****     uint32_t value; memmove(&value, buf, sizeof(value)); return value;
 341              		.loc 2 749 5 view .LVU100
 342              		.loc 2 749 21 view .LVU101
 343 0020 2A68     		ldr	r2, [r5]	@ unaligned
 344              	.LVL28:
 345              		.loc 2 749 58 view .LVU102
 100:Middlewares/Third_Party/CANopenNode/301/CO_HBconsumer.c ****     uint16_t time = val & 0xFFFF;
 346              		.loc 1 100 5 view .LVU103
 101:Middlewares/Third_Party/CANopenNode/301/CO_HBconsumer.c ****     CO_ReturnError_t ret = CO_HBconsumer_initEntry(HBcons, stream->subIndex - 1,
 347              		.loc 1 101 5 view .LVU104
 102:Middlewares/Third_Party/CANopenNode/301/CO_HBconsumer.c ****                                                    nodeId, time);
 348              		.loc 1 102 5 view .LVU105
 102:Middlewares/Third_Party/CANopenNode/301/CO_HBconsumer.c ****                                                    nodeId, time);
 349              		.loc 1 102 28 is_stmt 0 view .LVU106
 350 0022 0139     		subs	r1, r1, #1
 351 0024 93B2     		uxth	r3, r2
 352 0026 C2F30742 		ubfx	r2, r2, #16, #8
 353              	.LVL29:
 102:Middlewares/Third_Party/CANopenNode/301/CO_HBconsumer.c ****                                                    nodeId, time);
 354              		.loc 1 102 28 view .LVU107
 355 002a C9B2     		uxtb	r1, r1
 356 002c FFF7FEFF 		bl	CO_HBconsumer_initEntry
 357              	.LVL30:
 104:Middlewares/Third_Party/CANopenNode/301/CO_HBconsumer.c ****         return ODR_PAR_INCOMPAT;
 358              		.loc 1 104 5 is_stmt 1 view .LVU108
 104:Middlewares/Third_Party/CANopenNode/301/CO_HBconsumer.c ****         return ODR_PAR_INCOMPAT;
 359              		.loc 1 104 8 is_stmt 0 view .LVU109
 360 0030 90B9     		cbnz	r0, .L28
 109:Middlewares/Third_Party/CANopenNode/301/CO_HBconsumer.c **** }
 361              		.loc 1 109 5 is_stmt 1 view .LVU110
 109:Middlewares/Third_Party/CANopenNode/301/CO_HBconsumer.c **** }
 362              		.loc 1 109 12 is_stmt 0 view .LVU111
 363 0032 3346     		mov	r3, r6
 364 0034 3A46     		mov	r2, r7
 365 0036 2946     		mov	r1, r5
 366 0038 2046     		mov	r0, r4
 367              	.LVL31:
 109:Middlewares/Third_Party/CANopenNode/301/CO_HBconsumer.c **** }
 368              		.loc 1 109 12 view .LVU112
 369 003a FFF7FEFF 		bl	OD_writeOriginal
 370              	.LVL32:
 371 003e 04E0     		b	.L21
 372              	.LVL33:
 373              	.L22:
  96:Middlewares/Third_Party/CANopenNode/301/CO_HBconsumer.c ****     }
 374              		.loc 1 96 16 view .LVU113
 375 0040 0920     		movs	r0, #9
 376              	.LVL34:
  96:Middlewares/Third_Party/CANopenNode/301/CO_HBconsumer.c ****     }
 377              		.loc 1 96 16 view .LVU114
 378 0042 02E0     		b	.L21
 379              	.LVL35:
 380              	.L23:
  96:Middlewares/Third_Party/CANopenNode/301/CO_HBconsumer.c ****     }
 381              		.loc 1 96 16 view .LVU115
 382 0044 0920     		movs	r0, #9
 383              	.LVL36:
ARM GAS  C:\Users\walker\AppData\Local\Temp\ccbkesbg.s 			page 26


  96:Middlewares/Third_Party/CANopenNode/301/CO_HBconsumer.c ****     }
 384              		.loc 1 96 16 view .LVU116
 385 0046 00E0     		b	.L21
 386              	.LVL37:
 387              	.L24:
  96:Middlewares/Third_Party/CANopenNode/301/CO_HBconsumer.c ****     }
 388              		.loc 1 96 16 view .LVU117
 389 0048 0920     		movs	r0, #9
 390              	.LVL38:
 391              	.L21:
 110:Middlewares/Third_Party/CANopenNode/301/CO_HBconsumer.c **** #endif
 392              		.loc 1 110 1 view .LVU118
 393 004a F8BD     		pop	{r3, r4, r5, r6, r7, pc}
 394              	.LVL39:
 395              	.L25:
  96:Middlewares/Third_Party/CANopenNode/301/CO_HBconsumer.c ****     }
 396              		.loc 1 96 16 view .LVU119
 397 004c 0920     		movs	r0, #9
 398              	.LVL40:
  96:Middlewares/Third_Party/CANopenNode/301/CO_HBconsumer.c ****     }
 399              		.loc 1 96 16 view .LVU120
 400 004e FCE7     		b	.L21
 401              	.LVL41:
 402              	.L26:
  96:Middlewares/Third_Party/CANopenNode/301/CO_HBconsumer.c ****     }
 403              		.loc 1 96 16 view .LVU121
 404 0050 0920     		movs	r0, #9
 405              	.LVL42:
  96:Middlewares/Third_Party/CANopenNode/301/CO_HBconsumer.c ****     }
 406              		.loc 1 96 16 view .LVU122
 407 0052 FAE7     		b	.L21
 408              	.LVL43:
 409              	.L27:
  96:Middlewares/Third_Party/CANopenNode/301/CO_HBconsumer.c ****     }
 410              		.loc 1 96 16 view .LVU123
 411 0054 0920     		movs	r0, #9
 412              	.LVL44:
  96:Middlewares/Third_Party/CANopenNode/301/CO_HBconsumer.c ****     }
 413              		.loc 1 96 16 view .LVU124
 414 0056 F8E7     		b	.L21
 415              	.LVL45:
 416              	.L28:
 105:Middlewares/Third_Party/CANopenNode/301/CO_HBconsumer.c ****     }
 417              		.loc 1 105 16 view .LVU125
 418 0058 0820     		movs	r0, #8
 419              	.LVL46:
 105:Middlewares/Third_Party/CANopenNode/301/CO_HBconsumer.c ****     }
 420              		.loc 1 105 16 view .LVU126
 421 005a F6E7     		b	.L21
 422              		.cfi_endproc
 423              	.LFE161:
 425              		.section	.text.CO_HBconsumer_init,"ax",%progbits
 426              		.align	1
 427              		.global	CO_HBconsumer_init
 428              		.syntax unified
 429              		.thumb
 430              		.thumb_func
ARM GAS  C:\Users\walker\AppData\Local\Temp\ccbkesbg.s 			page 27


 432              	CO_HBconsumer_init:
 433              	.LVL47:
 434              	.LFB162:
 123:Middlewares/Third_Party/CANopenNode/301/CO_HBconsumer.c ****     ODR_t odRet;
 435              		.loc 1 123 1 is_stmt 1 view -0
 436              		.cfi_startproc
 437              		@ args = 16, pretend = 0, frame = 8
 438              		@ frame_needed = 0, uses_anonymous_args = 0
 123:Middlewares/Third_Party/CANopenNode/301/CO_HBconsumer.c ****     ODR_t odRet;
 439              		.loc 1 123 1 is_stmt 0 view .LVU128
 440 0000 2DE9F047 		push	{r4, r5, r6, r7, r8, r9, r10, lr}
 441              	.LCFI5:
 442              		.cfi_def_cfa_offset 32
 443              		.cfi_offset 4, -32
 444              		.cfi_offset 5, -28
 445              		.cfi_offset 6, -24
 446              		.cfi_offset 7, -20
 447              		.cfi_offset 8, -16
 448              		.cfi_offset 9, -12
 449              		.cfi_offset 10, -8
 450              		.cfi_offset 14, -4
 451 0004 84B0     		sub	sp, sp, #16
 452              	.LCFI6:
 453              		.cfi_def_cfa_offset 48
 454 0006 0C9F     		ldr	r7, [sp, #48]
 455 0008 DDF834A0 		ldr	r10, [sp, #52]
 456 000c DDF83C80 		ldr	r8, [sp, #60]
 124:Middlewares/Third_Party/CANopenNode/301/CO_HBconsumer.c **** 
 457              		.loc 1 124 5 is_stmt 1 view .LVU129
 127:Middlewares/Third_Party/CANopenNode/301/CO_HBconsumer.c ****         || OD_1016_HBcons == NULL || CANdevRx == NULL
 458              		.loc 1 127 5 view .LVU130
 127:Middlewares/Third_Party/CANopenNode/301/CO_HBconsumer.c ****         || OD_1016_HBcons == NULL || CANdevRx == NULL
 459              		.loc 1 127 8 is_stmt 0 view .LVU131
 460 0010 0028     		cmp	r0, #0
 461 0012 5AD0     		beq	.L40
 462 0014 8946     		mov	r9, r1
 463 0016 1546     		mov	r5, r2
 464 0018 1C46     		mov	r4, r3
 465 001a 0646     		mov	r6, r0
 127:Middlewares/Third_Party/CANopenNode/301/CO_HBconsumer.c ****         || OD_1016_HBcons == NULL || CANdevRx == NULL
 466              		.loc 1 127 24 discriminator 1 view .LVU132
 467 001c 0029     		cmp	r1, #0
 468 001e 57D0     		beq	.L41
 127:Middlewares/Third_Party/CANopenNode/301/CO_HBconsumer.c ****         || OD_1016_HBcons == NULL || CANdevRx == NULL
 469              		.loc 1 127 38 discriminator 2 view .LVU133
 470 0020 002A     		cmp	r2, #0
 471 0022 58D0     		beq	.L42
 128:Middlewares/Third_Party/CANopenNode/301/CO_HBconsumer.c ****     ) {
 472              		.loc 1 128 9 view .LVU134
 473 0024 002F     		cmp	r7, #0
 474 0026 59D0     		beq	.L43
 128:Middlewares/Third_Party/CANopenNode/301/CO_HBconsumer.c ****     ) {
 475              		.loc 1 128 35 discriminator 1 view .LVU135
 476 0028 BAF1000F 		cmp	r10, #0
 477 002c 59D0     		beq	.L44
 134:Middlewares/Third_Party/CANopenNode/301/CO_HBconsumer.c ****     HBcons->em = em;
 478              		.loc 1 134 5 is_stmt 1 view .LVU136
ARM GAS  C:\Users\walker\AppData\Local\Temp\ccbkesbg.s 			page 28


 479 002e 3022     		movs	r2, #48
 480              	.LVL48:
 134:Middlewares/Third_Party/CANopenNode/301/CO_HBconsumer.c ****     HBcons->em = em;
 481              		.loc 1 134 5 is_stmt 0 view .LVU137
 482 0030 0021     		movs	r1, #0
 483              	.LVL49:
 134:Middlewares/Third_Party/CANopenNode/301/CO_HBconsumer.c ****     HBcons->em = em;
 484              		.loc 1 134 5 view .LVU138
 485 0032 FFF7FEFF 		bl	memset
 486              	.LVL50:
 135:Middlewares/Third_Party/CANopenNode/301/CO_HBconsumer.c ****     HBcons->monitoredNodes = monitoredNodes;
 487              		.loc 1 135 5 is_stmt 1 view .LVU139
 135:Middlewares/Third_Party/CANopenNode/301/CO_HBconsumer.c ****     HBcons->monitoredNodes = monitoredNodes;
 488              		.loc 1 135 16 is_stmt 0 view .LVU140
 489 0036 C6F80090 		str	r9, [r6]
 136:Middlewares/Third_Party/CANopenNode/301/CO_HBconsumer.c ****     HBcons->CANdevRx = CANdevRx;
 490              		.loc 1 136 5 is_stmt 1 view .LVU141
 136:Middlewares/Third_Party/CANopenNode/301/CO_HBconsumer.c ****     HBcons->CANdevRx = CANdevRx;
 491              		.loc 1 136 28 is_stmt 0 view .LVU142
 492 003a 7560     		str	r5, [r6, #4]
 137:Middlewares/Third_Party/CANopenNode/301/CO_HBconsumer.c ****     HBcons->CANdevRxIdxStart = CANdevRxIdxStart;
 493              		.loc 1 137 5 is_stmt 1 view .LVU143
 137:Middlewares/Third_Party/CANopenNode/301/CO_HBconsumer.c ****     HBcons->CANdevRxIdxStart = CANdevRxIdxStart;
 494              		.loc 1 137 22 is_stmt 0 view .LVU144
 495 003c C6F818A0 		str	r10, [r6, #24]
 138:Middlewares/Third_Party/CANopenNode/301/CO_HBconsumer.c **** 
 496              		.loc 1 138 5 is_stmt 1 view .LVU145
 138:Middlewares/Third_Party/CANopenNode/301/CO_HBconsumer.c **** 
 497              		.loc 1 138 30 is_stmt 0 view .LVU146
 498 0040 BDF83830 		ldrh	r3, [sp, #56]
 499 0044 B383     		strh	r3, [r6, #28]	@ movhi
 141:Middlewares/Third_Party/CANopenNode/301/CO_HBconsumer.c ****         OD_1016_HBcons->subEntriesCount-1 < monitoredNodesCount ?
 500              		.loc 1 141 5 is_stmt 1 view .LVU147
 142:Middlewares/Third_Party/CANopenNode/301/CO_HBconsumer.c ****         OD_1016_HBcons->subEntriesCount-1 : monitoredNodesCount;
 501              		.loc 1 142 23 is_stmt 0 view .LVU148
 502 0046 BB78     		ldrb	r3, [r7, #2]	@ zero_extendqisi2
 141:Middlewares/Third_Party/CANopenNode/301/CO_HBconsumer.c ****         OD_1016_HBcons->subEntriesCount-1 < monitoredNodesCount ?
 503              		.loc 1 141 36 view .LVU149
 504 0048 A342     		cmp	r3, r4
 505 004a 01D8     		bhi	.L32
 141:Middlewares/Third_Party/CANopenNode/301/CO_HBconsumer.c ****         OD_1016_HBcons->subEntriesCount-1 < monitoredNodesCount ?
 506              		.loc 1 141 36 discriminator 1 view .LVU150
 507 004c 013B     		subs	r3, r3, #1
 508 004e DCB2     		uxtb	r4, r3
 509              	.L32:
 141:Middlewares/Third_Party/CANopenNode/301/CO_HBconsumer.c ****         OD_1016_HBcons->subEntriesCount-1 < monitoredNodesCount ?
 510              		.loc 1 141 36 discriminator 4 view .LVU151
 511 0050 3472     		strb	r4, [r6, #8]
 145:Middlewares/Third_Party/CANopenNode/301/CO_HBconsumer.c ****         uint32_t val;
 512              		.loc 1 145 5 is_stmt 1 discriminator 4 view .LVU152
 513              	.LBB20:
 145:Middlewares/Third_Party/CANopenNode/301/CO_HBconsumer.c ****         uint32_t val;
 514              		.loc 1 145 10 discriminator 4 view .LVU153
 515              	.LVL51:
 145:Middlewares/Third_Party/CANopenNode/301/CO_HBconsumer.c ****         uint32_t val;
 516              		.loc 1 145 18 is_stmt 0 discriminator 4 view .LVU154
 517 0052 0025     		movs	r5, #0
ARM GAS  C:\Users\walker\AppData\Local\Temp\ccbkesbg.s 			page 29


 518              	.LVL52:
 145:Middlewares/Third_Party/CANopenNode/301/CO_HBconsumer.c ****         uint32_t val;
 519              		.loc 1 145 5 discriminator 4 view .LVU155
 520 0054 0CE0     		b	.L33
 521              	.LVL53:
 522              	.L47:
 523              	.LBB21:
 149:Middlewares/Third_Party/CANopenNode/301/CO_HBconsumer.c ****             return CO_ERROR_OD_PARAMETERS;
 524              		.loc 1 149 13 is_stmt 1 view .LVU156
 149:Middlewares/Third_Party/CANopenNode/301/CO_HBconsumer.c ****             return CO_ERROR_OD_PARAMETERS;
 525              		.loc 1 149 16 is_stmt 0 view .LVU157
 526 0056 B8F1000F 		cmp	r8, #0
 527 005a 02D0     		beq	.L35
 149:Middlewares/Third_Party/CANopenNode/301/CO_HBconsumer.c ****             return CO_ERROR_OD_PARAMETERS;
 528              		.loc 1 149 34 is_stmt 1 view .LVU158
 529              	.LVL54:
 530              	.LBB22:
 531              	.LBI22:
 532              		.file 3 "Middlewares/Third_Party/CANopenNode/301/CO_ODinterface.h"
   1:Middlewares/Third_Party/CANopenNode/301/CO_ODinterface.h **** /**
   2:Middlewares/Third_Party/CANopenNode/301/CO_ODinterface.h ****  * CANopen Object Dictionary interface
   3:Middlewares/Third_Party/CANopenNode/301/CO_ODinterface.h ****  *
   4:Middlewares/Third_Party/CANopenNode/301/CO_ODinterface.h ****  * @file        CO_ODinterface.h
   5:Middlewares/Third_Party/CANopenNode/301/CO_ODinterface.h ****  * @ingroup     CO_ODinterface
   6:Middlewares/Third_Party/CANopenNode/301/CO_ODinterface.h ****  * @author      Janez Paternoster
   7:Middlewares/Third_Party/CANopenNode/301/CO_ODinterface.h ****  * @copyright   2020 Janez Paternoster
   8:Middlewares/Third_Party/CANopenNode/301/CO_ODinterface.h ****  *
   9:Middlewares/Third_Party/CANopenNode/301/CO_ODinterface.h ****  * This file is part of CANopenNode, an opensource CANopen Stack.
  10:Middlewares/Third_Party/CANopenNode/301/CO_ODinterface.h ****  * Project home page is <https://github.com/CANopenNode/CANopenNode>.
  11:Middlewares/Third_Party/CANopenNode/301/CO_ODinterface.h ****  * For more information on CANopen see <http://www.can-cia.org/>.
  12:Middlewares/Third_Party/CANopenNode/301/CO_ODinterface.h ****  *
  13:Middlewares/Third_Party/CANopenNode/301/CO_ODinterface.h ****  * Licensed under the Apache License, Version 2.0 (the "License");
  14:Middlewares/Third_Party/CANopenNode/301/CO_ODinterface.h ****  * you may not use this file except in compliance with the License.
  15:Middlewares/Third_Party/CANopenNode/301/CO_ODinterface.h ****  * You may obtain a copy of the License at
  16:Middlewares/Third_Party/CANopenNode/301/CO_ODinterface.h ****  *
  17:Middlewares/Third_Party/CANopenNode/301/CO_ODinterface.h ****  *     http://www.apache.org/licenses/LICENSE-2.0
  18:Middlewares/Third_Party/CANopenNode/301/CO_ODinterface.h ****  *
  19:Middlewares/Third_Party/CANopenNode/301/CO_ODinterface.h ****  * Unless required by applicable law or agreed to in writing, software
  20:Middlewares/Third_Party/CANopenNode/301/CO_ODinterface.h ****  * distributed under the License is distributed on an "AS IS" BASIS,
  21:Middlewares/Third_Party/CANopenNode/301/CO_ODinterface.h ****  * WITHOUT WARRANTIES OR CONDITIONS OF ANY KIND, either express or implied.
  22:Middlewares/Third_Party/CANopenNode/301/CO_ODinterface.h ****  * See the License for the specific language governing permissions and
  23:Middlewares/Third_Party/CANopenNode/301/CO_ODinterface.h ****  * limitations under the License.
  24:Middlewares/Third_Party/CANopenNode/301/CO_ODinterface.h ****  */
  25:Middlewares/Third_Party/CANopenNode/301/CO_ODinterface.h **** 
  26:Middlewares/Third_Party/CANopenNode/301/CO_ODinterface.h **** #ifndef CO_OD_INTERFACE_H
  27:Middlewares/Third_Party/CANopenNode/301/CO_ODinterface.h **** #define CO_OD_INTERFACE_H
  28:Middlewares/Third_Party/CANopenNode/301/CO_ODinterface.h **** 
  29:Middlewares/Third_Party/CANopenNode/301/CO_ODinterface.h **** #include "301/CO_driver.h"
  30:Middlewares/Third_Party/CANopenNode/301/CO_ODinterface.h **** 
  31:Middlewares/Third_Party/CANopenNode/301/CO_ODinterface.h **** #ifdef __cplusplus
  32:Middlewares/Third_Party/CANopenNode/301/CO_ODinterface.h **** extern "C" {
  33:Middlewares/Third_Party/CANopenNode/301/CO_ODinterface.h **** #endif
  34:Middlewares/Third_Party/CANopenNode/301/CO_ODinterface.h **** 
  35:Middlewares/Third_Party/CANopenNode/301/CO_ODinterface.h **** /**
  36:Middlewares/Third_Party/CANopenNode/301/CO_ODinterface.h ****  * @defgroup CO_ODinterface OD interface
  37:Middlewares/Third_Party/CANopenNode/301/CO_ODinterface.h ****  * CANopen Object Dictionary interface.
  38:Middlewares/Third_Party/CANopenNode/301/CO_ODinterface.h ****  *
ARM GAS  C:\Users\walker\AppData\Local\Temp\ccbkesbg.s 			page 30


  39:Middlewares/Third_Party/CANopenNode/301/CO_ODinterface.h ****  * @ingroup CO_CANopen_301
  40:Middlewares/Third_Party/CANopenNode/301/CO_ODinterface.h ****  * @{
  41:Middlewares/Third_Party/CANopenNode/301/CO_ODinterface.h ****  * See @ref doc/objectDictionary.md
  42:Middlewares/Third_Party/CANopenNode/301/CO_ODinterface.h ****  */
  43:Middlewares/Third_Party/CANopenNode/301/CO_ODinterface.h **** 
  44:Middlewares/Third_Party/CANopenNode/301/CO_ODinterface.h **** #ifndef CO_OD_OWN_TYPES
  45:Middlewares/Third_Party/CANopenNode/301/CO_ODinterface.h **** /** Variable of type OD_size_t contains data length in bytes of OD variable */
  46:Middlewares/Third_Party/CANopenNode/301/CO_ODinterface.h **** typedef uint32_t OD_size_t;
  47:Middlewares/Third_Party/CANopenNode/301/CO_ODinterface.h **** /** Type (and size) of Object Dictionary attribute */
  48:Middlewares/Third_Party/CANopenNode/301/CO_ODinterface.h **** typedef uint8_t OD_attr_t;
  49:Middlewares/Third_Party/CANopenNode/301/CO_ODinterface.h **** #endif
  50:Middlewares/Third_Party/CANopenNode/301/CO_ODinterface.h **** 
  51:Middlewares/Third_Party/CANopenNode/301/CO_ODinterface.h **** #ifndef OD_FLAGS_PDO_SIZE
  52:Middlewares/Third_Party/CANopenNode/301/CO_ODinterface.h **** /** Size of of flagsPDO variable inside @ref OD_extension_t, from 0 to 32. */
  53:Middlewares/Third_Party/CANopenNode/301/CO_ODinterface.h **** #define OD_FLAGS_PDO_SIZE 4
  54:Middlewares/Third_Party/CANopenNode/301/CO_ODinterface.h **** #endif
  55:Middlewares/Third_Party/CANopenNode/301/CO_ODinterface.h **** 
  56:Middlewares/Third_Party/CANopenNode/301/CO_ODinterface.h **** #ifndef CO_PROGMEM
  57:Middlewares/Third_Party/CANopenNode/301/CO_ODinterface.h **** /** Modifier for OD objects. This is large amount of data and is specified in
  58:Middlewares/Third_Party/CANopenNode/301/CO_ODinterface.h ****  * Object Dictionary (OD.c file usually) */
  59:Middlewares/Third_Party/CANopenNode/301/CO_ODinterface.h **** #define CO_PROGMEM const
  60:Middlewares/Third_Party/CANopenNode/301/CO_ODinterface.h **** #endif
  61:Middlewares/Third_Party/CANopenNode/301/CO_ODinterface.h **** 
  62:Middlewares/Third_Party/CANopenNode/301/CO_ODinterface.h **** 
  63:Middlewares/Third_Party/CANopenNode/301/CO_ODinterface.h **** /**
  64:Middlewares/Third_Party/CANopenNode/301/CO_ODinterface.h ****  * Common DS301 object dictionary entries.
  65:Middlewares/Third_Party/CANopenNode/301/CO_ODinterface.h ****  */
  66:Middlewares/Third_Party/CANopenNode/301/CO_ODinterface.h **** typedef enum {
  67:Middlewares/Third_Party/CANopenNode/301/CO_ODinterface.h ****     OD_H1000_DEV_TYPE           = 0x1000U,/**< Device type */
  68:Middlewares/Third_Party/CANopenNode/301/CO_ODinterface.h ****     OD_H1001_ERR_REG            = 0x1001U,/**< Error register */
  69:Middlewares/Third_Party/CANopenNode/301/CO_ODinterface.h ****     OD_H1002_MANUF_STATUS_REG   = 0x1002U,/**< Manufacturer status register */
  70:Middlewares/Third_Party/CANopenNode/301/CO_ODinterface.h ****     OD_H1003_PREDEF_ERR_FIELD   = 0x1003U,/**< Predefined error field */
  71:Middlewares/Third_Party/CANopenNode/301/CO_ODinterface.h ****     OD_H1004_RSV                = 0x1004U,/**< Reserved */
  72:Middlewares/Third_Party/CANopenNode/301/CO_ODinterface.h ****     OD_H1005_COBID_SYNC         = 0x1005U,/**< Sync message cob-id */
  73:Middlewares/Third_Party/CANopenNode/301/CO_ODinterface.h ****     OD_H1006_COMM_CYCL_PERIOD   = 0x1006U,/**< Communication cycle period */
  74:Middlewares/Third_Party/CANopenNode/301/CO_ODinterface.h ****     OD_H1007_SYNC_WINDOW_LEN    = 0x1007U,/**< Sync windows length */
  75:Middlewares/Third_Party/CANopenNode/301/CO_ODinterface.h ****     OD_H1008_MANUF_DEV_NAME     = 0x1008U,/**< Manufacturer device name */
  76:Middlewares/Third_Party/CANopenNode/301/CO_ODinterface.h ****     OD_H1009_MANUF_HW_VERSION   = 0x1009U,/**< Manufacturer hardware version */
  77:Middlewares/Third_Party/CANopenNode/301/CO_ODinterface.h ****     OD_H100A_MANUF_SW_VERSION   = 0x100AU,/**< Manufacturer software version */
  78:Middlewares/Third_Party/CANopenNode/301/CO_ODinterface.h ****     OD_H100B_RSV                = 0x100BU,/**< Reserved */
  79:Middlewares/Third_Party/CANopenNode/301/CO_ODinterface.h ****     OD_H100C_GUARD_TIME         = 0x100CU,/**< Guard time */
  80:Middlewares/Third_Party/CANopenNode/301/CO_ODinterface.h ****     OD_H100D_LIFETIME_FACTOR    = 0x100DU,/**< Life time factor */
  81:Middlewares/Third_Party/CANopenNode/301/CO_ODinterface.h ****     OD_H100E_RSV                = 0x100EU,/**< Reserved */
  82:Middlewares/Third_Party/CANopenNode/301/CO_ODinterface.h ****     OD_H100F_RSV                = 0x100FU,/**< Reserved */
  83:Middlewares/Third_Party/CANopenNode/301/CO_ODinterface.h ****     OD_H1010_STORE_PARAMETERS   = 0x1010U,/**< Store params in persistent mem.*/
  84:Middlewares/Third_Party/CANopenNode/301/CO_ODinterface.h ****     OD_H1011_RESTORE_DEFAULT    = 0x1011U,/**< Restore default parameters */
  85:Middlewares/Third_Party/CANopenNode/301/CO_ODinterface.h ****     OD_H1012_COBID_TIME         = 0x1012U,/**< Timestamp message cob-id */
  86:Middlewares/Third_Party/CANopenNode/301/CO_ODinterface.h ****     OD_H1013_HIGH_RES_TIMESTAMP = 0x1013U,/**< High resolution timestamp */
  87:Middlewares/Third_Party/CANopenNode/301/CO_ODinterface.h ****     OD_H1014_COBID_EMERGENCY    = 0x1014U,/**< Emergency message cob-id */
  88:Middlewares/Third_Party/CANopenNode/301/CO_ODinterface.h ****     OD_H1015_INHIBIT_TIME_EMCY  = 0x1015U,/**< Inhibit time emergency message */
  89:Middlewares/Third_Party/CANopenNode/301/CO_ODinterface.h ****     OD_H1016_CONSUMER_HB_TIME   = 0x1016U,/**< Consumer heartbeat time */
  90:Middlewares/Third_Party/CANopenNode/301/CO_ODinterface.h ****     OD_H1017_PRODUCER_HB_TIME   = 0x1017U,/**< Producer heartbeat time */
  91:Middlewares/Third_Party/CANopenNode/301/CO_ODinterface.h ****     OD_H1018_IDENTITY_OBJECT    = 0x1018U,/**< Identity object */
  92:Middlewares/Third_Party/CANopenNode/301/CO_ODinterface.h ****     OD_H1019_SYNC_CNT_OVERFLOW  = 0x1019U,/**< Sync counter overflow value */
  93:Middlewares/Third_Party/CANopenNode/301/CO_ODinterface.h ****     OD_H1020_VERIFY_CONFIG      = 0x1020U,/**< Verify configuration */
  94:Middlewares/Third_Party/CANopenNode/301/CO_ODinterface.h ****     OD_H1021_STORE_EDS          = 0x1021U,/**< Store EDS */
  95:Middlewares/Third_Party/CANopenNode/301/CO_ODinterface.h ****     OD_H1022_STORE_FORMAT       = 0x1022U,/**< Store format */
ARM GAS  C:\Users\walker\AppData\Local\Temp\ccbkesbg.s 			page 31


  96:Middlewares/Third_Party/CANopenNode/301/CO_ODinterface.h ****     OD_H1023_OS_CMD             = 0x1023U,/**< OS command */
  97:Middlewares/Third_Party/CANopenNode/301/CO_ODinterface.h ****     OD_H1024_OS_CMD_MODE        = 0x1024U,/**< OS command mode */
  98:Middlewares/Third_Party/CANopenNode/301/CO_ODinterface.h ****     OD_H1025_OS_DBG_INTERFACE   = 0x1025U,/**< OS debug interface */
  99:Middlewares/Third_Party/CANopenNode/301/CO_ODinterface.h ****     OD_H1026_OS_PROMPT          = 0x1026U,/**< OS prompt */
 100:Middlewares/Third_Party/CANopenNode/301/CO_ODinterface.h ****     OD_H1027_MODULE_LIST        = 0x1027U,/**< Module list */
 101:Middlewares/Third_Party/CANopenNode/301/CO_ODinterface.h ****     OD_H1028_EMCY_CONSUMER      = 0x1028U,/**< Emergency consumer object */
 102:Middlewares/Third_Party/CANopenNode/301/CO_ODinterface.h ****     OD_H1029_ERR_BEHAVIOR       = 0x1029U,/**< Error behaviour */
 103:Middlewares/Third_Party/CANopenNode/301/CO_ODinterface.h ****     OD_H1200_SDO_SERVER_1_PARAM = 0x1200U,/**< SDO server parameter */
 104:Middlewares/Third_Party/CANopenNode/301/CO_ODinterface.h ****     OD_H1280_SDO_CLIENT_1_PARAM = 0x1280U,/**< SDO client parameter */
 105:Middlewares/Third_Party/CANopenNode/301/CO_ODinterface.h ****     OD_H1300_GFC_PARAM          = 0x1300U,/**< Global fail-safe command param */
 106:Middlewares/Third_Party/CANopenNode/301/CO_ODinterface.h ****     OD_H1301_SRDO_1_PARAM       = 0x1301U,/**< SRDO communication parameter */
 107:Middlewares/Third_Party/CANopenNode/301/CO_ODinterface.h ****     OD_H1381_SRDO_1_MAPPING     = 0x1381U,/**< SRDO mapping parameter */
 108:Middlewares/Third_Party/CANopenNode/301/CO_ODinterface.h ****     OD_H13FE_SRDO_VALID         = 0x13FEU,/**< SRDO Configuration valid */
 109:Middlewares/Third_Party/CANopenNode/301/CO_ODinterface.h ****     OD_H13FF_SRDO_CHECKSUM      = 0x13FFU,/**< SRDO configuration checksum */
 110:Middlewares/Third_Party/CANopenNode/301/CO_ODinterface.h ****     OD_H1400_RXPDO_1_PARAM      = 0x1400U,/**< RXPDO communication parameter */
 111:Middlewares/Third_Party/CANopenNode/301/CO_ODinterface.h ****     OD_H1600_RXPDO_1_MAPPING    = 0x1600U,/**< RXPDO mapping parameters */
 112:Middlewares/Third_Party/CANopenNode/301/CO_ODinterface.h ****     OD_H1800_TXPDO_1_PARAM      = 0x1800U,/**< TXPDO communication parameter */
 113:Middlewares/Third_Party/CANopenNode/301/CO_ODinterface.h ****     OD_H1A00_TXPDO_1_MAPPING    = 0x1A00U,/**< TXPDO mapping parameters */
 114:Middlewares/Third_Party/CANopenNode/301/CO_ODinterface.h **** } OD_ObjDicId_30x_t;
 115:Middlewares/Third_Party/CANopenNode/301/CO_ODinterface.h **** 
 116:Middlewares/Third_Party/CANopenNode/301/CO_ODinterface.h **** 
 117:Middlewares/Third_Party/CANopenNode/301/CO_ODinterface.h **** /**
 118:Middlewares/Third_Party/CANopenNode/301/CO_ODinterface.h ****  * Attributes (bit masks) for OD sub-object.
 119:Middlewares/Third_Party/CANopenNode/301/CO_ODinterface.h ****  */
 120:Middlewares/Third_Party/CANopenNode/301/CO_ODinterface.h **** typedef enum {
 121:Middlewares/Third_Party/CANopenNode/301/CO_ODinterface.h ****     ODA_SDO_R = 0x01, /**< SDO server may read from the variable */
 122:Middlewares/Third_Party/CANopenNode/301/CO_ODinterface.h ****     ODA_SDO_W = 0x02, /**< SDO server may write to the variable */
 123:Middlewares/Third_Party/CANopenNode/301/CO_ODinterface.h ****     ODA_SDO_RW = 0x03, /**< SDO server may read from or write to the variable */
 124:Middlewares/Third_Party/CANopenNode/301/CO_ODinterface.h ****     ODA_TPDO = 0x04, /**< Variable is mappable into TPDO (can be read) */
 125:Middlewares/Third_Party/CANopenNode/301/CO_ODinterface.h ****     ODA_RPDO = 0x08, /**< Variable is mappable into RPDO (can be written) */
 126:Middlewares/Third_Party/CANopenNode/301/CO_ODinterface.h ****     ODA_TRPDO = 0x0C, /**< Variable is mappable into TPDO or RPDO */
 127:Middlewares/Third_Party/CANopenNode/301/CO_ODinterface.h ****     ODA_TSRDO = 0x10, /**< Variable is mappable into transmitting SRDO */
 128:Middlewares/Third_Party/CANopenNode/301/CO_ODinterface.h ****     ODA_RSRDO = 0x20, /**< Variable is mappable into receiving SRDO */
 129:Middlewares/Third_Party/CANopenNode/301/CO_ODinterface.h ****     ODA_TRSRDO = 0x30, /**< Variable is mappable into tx or rx SRDO */
 130:Middlewares/Third_Party/CANopenNode/301/CO_ODinterface.h ****     ODA_MB = 0x40, /**< Variable is multi-byte ((u)int16_t to (u)int64_t) */
 131:Middlewares/Third_Party/CANopenNode/301/CO_ODinterface.h ****     ODA_STR = 0x80 /**< Shorter value, than specified variable size, may be
 132:Middlewares/Third_Party/CANopenNode/301/CO_ODinterface.h ****     written to the variable. SDO write will fill remaining memory with zeroes.
 133:Middlewares/Third_Party/CANopenNode/301/CO_ODinterface.h ****     Attribute is used for VISIBLE_STRING and UNICODE_STRING. */
 134:Middlewares/Third_Party/CANopenNode/301/CO_ODinterface.h **** } OD_attributes_t;
 135:Middlewares/Third_Party/CANopenNode/301/CO_ODinterface.h **** 
 136:Middlewares/Third_Party/CANopenNode/301/CO_ODinterface.h **** 
 137:Middlewares/Third_Party/CANopenNode/301/CO_ODinterface.h **** /**
 138:Middlewares/Third_Party/CANopenNode/301/CO_ODinterface.h ****  * Return codes from OD access functions.
 139:Middlewares/Third_Party/CANopenNode/301/CO_ODinterface.h ****  *
 140:Middlewares/Third_Party/CANopenNode/301/CO_ODinterface.h ****  * @ref OD_getSDOabCode() can be used to retrieve corresponding SDO abort code.
 141:Middlewares/Third_Party/CANopenNode/301/CO_ODinterface.h ****  */
 142:Middlewares/Third_Party/CANopenNode/301/CO_ODinterface.h **** typedef enum {
 143:Middlewares/Third_Party/CANopenNode/301/CO_ODinterface.h **** /* !!!! WARNING !!!!
 144:Middlewares/Third_Party/CANopenNode/301/CO_ODinterface.h ****  * If changing these values, change also OD_getSDOabCode() function!
 145:Middlewares/Third_Party/CANopenNode/301/CO_ODinterface.h ****  */
 146:Middlewares/Third_Party/CANopenNode/301/CO_ODinterface.h ****     /** Read/write is only partial, make more calls */
 147:Middlewares/Third_Party/CANopenNode/301/CO_ODinterface.h ****     ODR_PARTIAL = -1,
 148:Middlewares/Third_Party/CANopenNode/301/CO_ODinterface.h ****     /** SDO abort 0x00000000 - Read/write successfully finished */
 149:Middlewares/Third_Party/CANopenNode/301/CO_ODinterface.h ****     ODR_OK = 0,
 150:Middlewares/Third_Party/CANopenNode/301/CO_ODinterface.h ****     /** SDO abort 0x05040005 - Out of memory */
 151:Middlewares/Third_Party/CANopenNode/301/CO_ODinterface.h ****     ODR_OUT_OF_MEM = 1,
 152:Middlewares/Third_Party/CANopenNode/301/CO_ODinterface.h ****     /** SDO abort 0x06010000 - Unsupported access to an object */
ARM GAS  C:\Users\walker\AppData\Local\Temp\ccbkesbg.s 			page 32


 153:Middlewares/Third_Party/CANopenNode/301/CO_ODinterface.h ****     ODR_UNSUPP_ACCESS = 2,
 154:Middlewares/Third_Party/CANopenNode/301/CO_ODinterface.h ****     /** SDO abort 0x06010001 - Attempt to read a write only object */
 155:Middlewares/Third_Party/CANopenNode/301/CO_ODinterface.h ****     ODR_WRITEONLY = 3,
 156:Middlewares/Third_Party/CANopenNode/301/CO_ODinterface.h ****     /** SDO abort 0x06010002 - Attempt to write a read only object */
 157:Middlewares/Third_Party/CANopenNode/301/CO_ODinterface.h ****     ODR_READONLY = 4,
 158:Middlewares/Third_Party/CANopenNode/301/CO_ODinterface.h ****     /** SDO abort 0x06020000 - Object does not exist in the object dict. */
 159:Middlewares/Third_Party/CANopenNode/301/CO_ODinterface.h ****     ODR_IDX_NOT_EXIST = 5,
 160:Middlewares/Third_Party/CANopenNode/301/CO_ODinterface.h ****     /** SDO abort 0x06040041 - Object cannot be mapped to the PDO */
 161:Middlewares/Third_Party/CANopenNode/301/CO_ODinterface.h ****     ODR_NO_MAP = 6,
 162:Middlewares/Third_Party/CANopenNode/301/CO_ODinterface.h ****     /** SDO abort 0x06040042 - PDO length exceeded */
 163:Middlewares/Third_Party/CANopenNode/301/CO_ODinterface.h ****     ODR_MAP_LEN = 7,
 164:Middlewares/Third_Party/CANopenNode/301/CO_ODinterface.h ****     /** SDO abort 0x06040043 - General parameter incompatibility reasons */
 165:Middlewares/Third_Party/CANopenNode/301/CO_ODinterface.h ****     ODR_PAR_INCOMPAT = 8,
 166:Middlewares/Third_Party/CANopenNode/301/CO_ODinterface.h ****     /** SDO abort 0x06040047 - General internal incompatibility in device */
 167:Middlewares/Third_Party/CANopenNode/301/CO_ODinterface.h ****     ODR_DEV_INCOMPAT = 9,
 168:Middlewares/Third_Party/CANopenNode/301/CO_ODinterface.h ****     /** SDO abort 0x06060000 - Access failed due to hardware error */
 169:Middlewares/Third_Party/CANopenNode/301/CO_ODinterface.h ****     ODR_HW = 10,
 170:Middlewares/Third_Party/CANopenNode/301/CO_ODinterface.h ****     /** SDO abort 0x06070010 - Data type does not match */
 171:Middlewares/Third_Party/CANopenNode/301/CO_ODinterface.h ****     ODR_TYPE_MISMATCH = 11,
 172:Middlewares/Third_Party/CANopenNode/301/CO_ODinterface.h ****     /** SDO abort 0x06070012 - Data type does not match, length too high */
 173:Middlewares/Third_Party/CANopenNode/301/CO_ODinterface.h ****     ODR_DATA_LONG = 12,
 174:Middlewares/Third_Party/CANopenNode/301/CO_ODinterface.h ****     /** SDO abort 0x06070013 - Data type does not match, length too short */
 175:Middlewares/Third_Party/CANopenNode/301/CO_ODinterface.h ****     ODR_DATA_SHORT = 13,
 176:Middlewares/Third_Party/CANopenNode/301/CO_ODinterface.h ****     /** SDO abort 0x06090011 - Sub index does not exist */
 177:Middlewares/Third_Party/CANopenNode/301/CO_ODinterface.h ****     ODR_SUB_NOT_EXIST = 14,
 178:Middlewares/Third_Party/CANopenNode/301/CO_ODinterface.h ****     /** SDO abort 0x06090030 - Invalid value for parameter (download only) */
 179:Middlewares/Third_Party/CANopenNode/301/CO_ODinterface.h ****     ODR_INVALID_VALUE = 15,
 180:Middlewares/Third_Party/CANopenNode/301/CO_ODinterface.h ****     /** SDO abort 0x06090031 - Value range of parameter written too high */
 181:Middlewares/Third_Party/CANopenNode/301/CO_ODinterface.h ****     ODR_VALUE_HIGH = 16,
 182:Middlewares/Third_Party/CANopenNode/301/CO_ODinterface.h ****     /** SDO abort 0x06090032 - Value range of parameter written too low */
 183:Middlewares/Third_Party/CANopenNode/301/CO_ODinterface.h ****     ODR_VALUE_LOW = 17,
 184:Middlewares/Third_Party/CANopenNode/301/CO_ODinterface.h ****     /** SDO abort 0x06090036 - Maximum value is less than minimum value */
 185:Middlewares/Third_Party/CANopenNode/301/CO_ODinterface.h ****     ODR_MAX_LESS_MIN = 18,
 186:Middlewares/Third_Party/CANopenNode/301/CO_ODinterface.h ****     /** SDO abort 0x060A0023 - Resource not available: SDO connection */
 187:Middlewares/Third_Party/CANopenNode/301/CO_ODinterface.h ****     ODR_NO_RESOURCE = 19,
 188:Middlewares/Third_Party/CANopenNode/301/CO_ODinterface.h ****     /** SDO abort 0x08000000 - General error */
 189:Middlewares/Third_Party/CANopenNode/301/CO_ODinterface.h ****     ODR_GENERAL = 20,
 190:Middlewares/Third_Party/CANopenNode/301/CO_ODinterface.h ****     /** SDO abort 0x08000020 - Data cannot be transferred or stored to app */
 191:Middlewares/Third_Party/CANopenNode/301/CO_ODinterface.h ****     ODR_DATA_TRANSF = 21,
 192:Middlewares/Third_Party/CANopenNode/301/CO_ODinterface.h ****     /** SDO abort 0x08000021 - Data can't be transferred (local control) */
 193:Middlewares/Third_Party/CANopenNode/301/CO_ODinterface.h ****     ODR_DATA_LOC_CTRL = 22,
 194:Middlewares/Third_Party/CANopenNode/301/CO_ODinterface.h ****     /** SDO abort 0x08000022 - Data can't be transf. (present device state) */
 195:Middlewares/Third_Party/CANopenNode/301/CO_ODinterface.h ****     ODR_DATA_DEV_STATE = 23,
 196:Middlewares/Third_Party/CANopenNode/301/CO_ODinterface.h ****     /** SDO abort 0x08000023 - Object dictionary not present */
 197:Middlewares/Third_Party/CANopenNode/301/CO_ODinterface.h ****     ODR_OD_MISSING = 23,
 198:Middlewares/Third_Party/CANopenNode/301/CO_ODinterface.h ****     /** SDO abort 0x08000024 - No data available */
 199:Middlewares/Third_Party/CANopenNode/301/CO_ODinterface.h ****     ODR_NO_DATA = 25,
 200:Middlewares/Third_Party/CANopenNode/301/CO_ODinterface.h ****     /** Last element, number of responses */
 201:Middlewares/Third_Party/CANopenNode/301/CO_ODinterface.h ****     ODR_COUNT = 26
 202:Middlewares/Third_Party/CANopenNode/301/CO_ODinterface.h **** } ODR_t;
 203:Middlewares/Third_Party/CANopenNode/301/CO_ODinterface.h **** 
 204:Middlewares/Third_Party/CANopenNode/301/CO_ODinterface.h **** 
 205:Middlewares/Third_Party/CANopenNode/301/CO_ODinterface.h **** /**
 206:Middlewares/Third_Party/CANopenNode/301/CO_ODinterface.h ****  * IO stream structure, used for read/write access to OD variable, part of
 207:Middlewares/Third_Party/CANopenNode/301/CO_ODinterface.h ****  * @ref OD_IO_t.
 208:Middlewares/Third_Party/CANopenNode/301/CO_ODinterface.h ****  */
 209:Middlewares/Third_Party/CANopenNode/301/CO_ODinterface.h **** typedef struct {
ARM GAS  C:\Users\walker\AppData\Local\Temp\ccbkesbg.s 			page 33


 210:Middlewares/Third_Party/CANopenNode/301/CO_ODinterface.h ****     /** Pointer to original data object, defined by Object Dictionary. Default
 211:Middlewares/Third_Party/CANopenNode/301/CO_ODinterface.h ****      * read/write functions operate on it. If memory for data object is not
 212:Middlewares/Third_Party/CANopenNode/301/CO_ODinterface.h ****      * specified by Object Dictionary, then dataOrig is NULL.
 213:Middlewares/Third_Party/CANopenNode/301/CO_ODinterface.h ****      */
 214:Middlewares/Third_Party/CANopenNode/301/CO_ODinterface.h ****     void *dataOrig;
 215:Middlewares/Third_Party/CANopenNode/301/CO_ODinterface.h ****     /** Pointer to object, passed by @ref OD_extension_init(). Can be used
 216:Middlewares/Third_Party/CANopenNode/301/CO_ODinterface.h ****      * inside read / write functions from IO extension.
 217:Middlewares/Third_Party/CANopenNode/301/CO_ODinterface.h ****      */
 218:Middlewares/Third_Party/CANopenNode/301/CO_ODinterface.h ****     void *object;
 219:Middlewares/Third_Party/CANopenNode/301/CO_ODinterface.h ****     /** Data length in bytes or 0, if length is not specified */
 220:Middlewares/Third_Party/CANopenNode/301/CO_ODinterface.h ****     OD_size_t dataLength;
 221:Middlewares/Third_Party/CANopenNode/301/CO_ODinterface.h ****     /** In case of large data, dataOffset indicates position of already
 222:Middlewares/Third_Party/CANopenNode/301/CO_ODinterface.h ****      * transferred data */
 223:Middlewares/Third_Party/CANopenNode/301/CO_ODinterface.h ****     OD_size_t dataOffset;
 224:Middlewares/Third_Party/CANopenNode/301/CO_ODinterface.h ****     /** Attribute bit-field of the OD sub-object, see @ref OD_attributes_t */
 225:Middlewares/Third_Party/CANopenNode/301/CO_ODinterface.h ****     OD_attr_t attribute;
 226:Middlewares/Third_Party/CANopenNode/301/CO_ODinterface.h ****     /** Sub index of the OD sub-object, informative */
 227:Middlewares/Third_Party/CANopenNode/301/CO_ODinterface.h ****     uint8_t subIndex;
 228:Middlewares/Third_Party/CANopenNode/301/CO_ODinterface.h **** } OD_stream_t;
 229:Middlewares/Third_Party/CANopenNode/301/CO_ODinterface.h **** 
 230:Middlewares/Third_Party/CANopenNode/301/CO_ODinterface.h **** 
 231:Middlewares/Third_Party/CANopenNode/301/CO_ODinterface.h **** /**
 232:Middlewares/Third_Party/CANopenNode/301/CO_ODinterface.h ****  * Structure for input / output on the OD variable. It is initialized with
 233:Middlewares/Third_Party/CANopenNode/301/CO_ODinterface.h ****  * @ref OD_getSub() function. Access principle to OD variable is via read/write
 234:Middlewares/Third_Party/CANopenNode/301/CO_ODinterface.h ****  * functions operating on stream, similar as standard read/write.
 235:Middlewares/Third_Party/CANopenNode/301/CO_ODinterface.h ****  */
 236:Middlewares/Third_Party/CANopenNode/301/CO_ODinterface.h **** typedef struct {
 237:Middlewares/Third_Party/CANopenNode/301/CO_ODinterface.h ****     /** Object Dictionary stream object, passed to read or write */
 238:Middlewares/Third_Party/CANopenNode/301/CO_ODinterface.h ****     OD_stream_t stream;
 239:Middlewares/Third_Party/CANopenNode/301/CO_ODinterface.h ****     /**
 240:Middlewares/Third_Party/CANopenNode/301/CO_ODinterface.h ****      * Function pointer for reading value from specified variable from Object
 241:Middlewares/Third_Party/CANopenNode/301/CO_ODinterface.h ****      * Dictionary. If OD variable is larger than buf, then this function must
 242:Middlewares/Third_Party/CANopenNode/301/CO_ODinterface.h ****      * be called several times. After completed successful read function returns
 243:Middlewares/Third_Party/CANopenNode/301/CO_ODinterface.h ****      * 'ODR_OK'. If read is partial, it returns 'ODR_PARTIAL'. In case of errors
 244:Middlewares/Third_Party/CANopenNode/301/CO_ODinterface.h ****      * function returns code similar to SDO abort code.
 245:Middlewares/Third_Party/CANopenNode/301/CO_ODinterface.h ****      *
 246:Middlewares/Third_Party/CANopenNode/301/CO_ODinterface.h ****      * Read can be restarted with @ref OD_rwRestart() function.
 247:Middlewares/Third_Party/CANopenNode/301/CO_ODinterface.h ****      *
 248:Middlewares/Third_Party/CANopenNode/301/CO_ODinterface.h ****      * At the moment, when Object Dictionary is initialized, every variable has
 249:Middlewares/Third_Party/CANopenNode/301/CO_ODinterface.h ****      * assigned the same "read" function. This default function simply copies
 250:Middlewares/Third_Party/CANopenNode/301/CO_ODinterface.h ****      * data from Object Dictionary variable. Application can bind its own "read"
 251:Middlewares/Third_Party/CANopenNode/301/CO_ODinterface.h ****      * function for specific object. In that case application is able to
 252:Middlewares/Third_Party/CANopenNode/301/CO_ODinterface.h ****      * calculate data for reading from own internal state at the moment of
 253:Middlewares/Third_Party/CANopenNode/301/CO_ODinterface.h ****      * "read" function call. Own "read" function on OD object can be initialized
 254:Middlewares/Third_Party/CANopenNode/301/CO_ODinterface.h ****      * with @ref OD_extension_init() function.
 255:Middlewares/Third_Party/CANopenNode/301/CO_ODinterface.h ****      *
 256:Middlewares/Third_Party/CANopenNode/301/CO_ODinterface.h ****      * "read" function must always copy all own data to buf, except if "buf" is
 257:Middlewares/Third_Party/CANopenNode/301/CO_ODinterface.h ****      * not large enough. ("*returnCode" must not return 'ODR_PARTIAL', if there
 258:Middlewares/Third_Party/CANopenNode/301/CO_ODinterface.h ****      * is still space in "buf".)
 259:Middlewares/Third_Party/CANopenNode/301/CO_ODinterface.h ****      *
 260:Middlewares/Third_Party/CANopenNode/301/CO_ODinterface.h ****      * @warning When accessing OD variables by calling the read() function, it
 261:Middlewares/Third_Party/CANopenNode/301/CO_ODinterface.h ****      * may be necessary to use @ref CO_LOCK_OD() and @ref CO_UNLOCK_OD() macros.
 262:Middlewares/Third_Party/CANopenNode/301/CO_ODinterface.h ****      * See @ref CO_critical_sections for more information.
 263:Middlewares/Third_Party/CANopenNode/301/CO_ODinterface.h ****      *
 264:Middlewares/Third_Party/CANopenNode/301/CO_ODinterface.h ****      * @param stream Object Dictionary stream object.
 265:Middlewares/Third_Party/CANopenNode/301/CO_ODinterface.h ****      * @param buf Pointer to external buffer, where to data will be copied.
 266:Middlewares/Third_Party/CANopenNode/301/CO_ODinterface.h ****      * @param count Size of the external buffer in bytes.
ARM GAS  C:\Users\walker\AppData\Local\Temp\ccbkesbg.s 			page 34


 267:Middlewares/Third_Party/CANopenNode/301/CO_ODinterface.h ****      * @param [out] countRead If return value is "ODR_OK" or "ODR_PARTIAL",
 268:Middlewares/Third_Party/CANopenNode/301/CO_ODinterface.h ****      * then number of bytes successfully read must be returned here.
 269:Middlewares/Third_Party/CANopenNode/301/CO_ODinterface.h ****      *
 270:Middlewares/Third_Party/CANopenNode/301/CO_ODinterface.h ****      * @return Value from @ref ODR_t, "ODR_OK" in case of success.
 271:Middlewares/Third_Party/CANopenNode/301/CO_ODinterface.h ****      */
 272:Middlewares/Third_Party/CANopenNode/301/CO_ODinterface.h ****     ODR_t (*read)(OD_stream_t *stream, void *buf,
 273:Middlewares/Third_Party/CANopenNode/301/CO_ODinterface.h ****                   OD_size_t count, OD_size_t *countRead);
 274:Middlewares/Third_Party/CANopenNode/301/CO_ODinterface.h ****     /**
 275:Middlewares/Third_Party/CANopenNode/301/CO_ODinterface.h ****      * Function pointer for writing value into specified variable inside Object
 276:Middlewares/Third_Party/CANopenNode/301/CO_ODinterface.h ****      * Dictionary. If OD variable is larger than buf, then this function must
 277:Middlewares/Third_Party/CANopenNode/301/CO_ODinterface.h ****      * be called several times. After completed successful write function
 278:Middlewares/Third_Party/CANopenNode/301/CO_ODinterface.h ****      * returns 'ODR_OK'. If write is partial, it returns 'ODR_PARTIAL'. In case
 279:Middlewares/Third_Party/CANopenNode/301/CO_ODinterface.h ****      * of errors function returns code similar to SDO abort code.
 280:Middlewares/Third_Party/CANopenNode/301/CO_ODinterface.h ****      *
 281:Middlewares/Third_Party/CANopenNode/301/CO_ODinterface.h ****      * Write can be restarted with @ref OD_rwRestart() function.
 282:Middlewares/Third_Party/CANopenNode/301/CO_ODinterface.h ****      *
 283:Middlewares/Third_Party/CANopenNode/301/CO_ODinterface.h ****      * At the moment, when Object Dictionary is initialized, every variable has
 284:Middlewares/Third_Party/CANopenNode/301/CO_ODinterface.h ****      * assigned the same "write" function, which simply copies data to Object
 285:Middlewares/Third_Party/CANopenNode/301/CO_ODinterface.h ****      * Dictionary variable. Application can bind its own "write" function,
 286:Middlewares/Third_Party/CANopenNode/301/CO_ODinterface.h ****      * similar as it can bind "read" function.
 287:Middlewares/Third_Party/CANopenNode/301/CO_ODinterface.h ****      *
 288:Middlewares/Third_Party/CANopenNode/301/CO_ODinterface.h ****      * "write" function must always copy all available data from buf. If OD
 289:Middlewares/Third_Party/CANopenNode/301/CO_ODinterface.h ****      * variable expect more data, then "*returnCode" must return 'ODR_PARTIAL'.
 290:Middlewares/Third_Party/CANopenNode/301/CO_ODinterface.h ****      *
 291:Middlewares/Third_Party/CANopenNode/301/CO_ODinterface.h ****      * @warning When accessing OD variables by calling the read() function, it
 292:Middlewares/Third_Party/CANopenNode/301/CO_ODinterface.h ****      * may be necessary to use @ref CO_LOCK_OD() and @ref CO_UNLOCK_OD() macros.
 293:Middlewares/Third_Party/CANopenNode/301/CO_ODinterface.h ****      * See @ref CO_critical_sections for more information.
 294:Middlewares/Third_Party/CANopenNode/301/CO_ODinterface.h ****      *
 295:Middlewares/Third_Party/CANopenNode/301/CO_ODinterface.h ****      * @param stream Object Dictionary stream object.
 296:Middlewares/Third_Party/CANopenNode/301/CO_ODinterface.h ****      * @param buf Pointer to external buffer, from where data will be copied.
 297:Middlewares/Third_Party/CANopenNode/301/CO_ODinterface.h ****      * @param count Size of the external buffer in bytes.
 298:Middlewares/Third_Party/CANopenNode/301/CO_ODinterface.h ****      * @param [out] countWritten If return value is "ODR_OK" or "ODR_PARTIAL",
 299:Middlewares/Third_Party/CANopenNode/301/CO_ODinterface.h ****      * then number of bytes successfully written must be returned here.
 300:Middlewares/Third_Party/CANopenNode/301/CO_ODinterface.h ****      *
 301:Middlewares/Third_Party/CANopenNode/301/CO_ODinterface.h ****      * @return Value from @ref ODR_t, "ODR_OK" in case of success.
 302:Middlewares/Third_Party/CANopenNode/301/CO_ODinterface.h ****      */
 303:Middlewares/Third_Party/CANopenNode/301/CO_ODinterface.h ****     ODR_t (*write)(OD_stream_t *stream, const void *buf,
 304:Middlewares/Third_Party/CANopenNode/301/CO_ODinterface.h ****                    OD_size_t count, OD_size_t *countWritten);
 305:Middlewares/Third_Party/CANopenNode/301/CO_ODinterface.h **** } OD_IO_t;
 306:Middlewares/Third_Party/CANopenNode/301/CO_ODinterface.h **** 
 307:Middlewares/Third_Party/CANopenNode/301/CO_ODinterface.h **** 
 308:Middlewares/Third_Party/CANopenNode/301/CO_ODinterface.h **** /**
 309:Middlewares/Third_Party/CANopenNode/301/CO_ODinterface.h ****  * Extension of OD object, which can optionally be specified by application in
 310:Middlewares/Third_Party/CANopenNode/301/CO_ODinterface.h ****  * initialization phase with @ref OD_extension_init() function.
 311:Middlewares/Third_Party/CANopenNode/301/CO_ODinterface.h ****  */
 312:Middlewares/Third_Party/CANopenNode/301/CO_ODinterface.h **** typedef struct {
 313:Middlewares/Third_Party/CANopenNode/301/CO_ODinterface.h ****     /** Object on which read and write will operate, part of @ref OD_stream_t */
 314:Middlewares/Third_Party/CANopenNode/301/CO_ODinterface.h ****     void *object;
 315:Middlewares/Third_Party/CANopenNode/301/CO_ODinterface.h ****     /** Application specified read function pointer. If NULL, then read will be
 316:Middlewares/Third_Party/CANopenNode/301/CO_ODinterface.h ****      * disabled. @ref OD_readOriginal can be used here to keep the original read
 317:Middlewares/Third_Party/CANopenNode/301/CO_ODinterface.h ****      * function. For function description see @ref OD_IO_t. */
 318:Middlewares/Third_Party/CANopenNode/301/CO_ODinterface.h ****     ODR_t (*read)(OD_stream_t *stream, void *buf,
 319:Middlewares/Third_Party/CANopenNode/301/CO_ODinterface.h ****                   OD_size_t count, OD_size_t *countRead);
 320:Middlewares/Third_Party/CANopenNode/301/CO_ODinterface.h ****     /** Application specified write function pointer. If NULL, then write will
 321:Middlewares/Third_Party/CANopenNode/301/CO_ODinterface.h ****      * be disabled. @ref OD_writeOriginal can be used here to keep the original
 322:Middlewares/Third_Party/CANopenNode/301/CO_ODinterface.h ****      * write function. For function description see @ref OD_IO_t. */
 323:Middlewares/Third_Party/CANopenNode/301/CO_ODinterface.h ****     ODR_t (*write)(OD_stream_t *stream, const void *buf,
ARM GAS  C:\Users\walker\AppData\Local\Temp\ccbkesbg.s 			page 35


 324:Middlewares/Third_Party/CANopenNode/301/CO_ODinterface.h ****                    OD_size_t count, OD_size_t *countWritten);
 325:Middlewares/Third_Party/CANopenNode/301/CO_ODinterface.h **** #if OD_FLAGS_PDO_SIZE > 0
 326:Middlewares/Third_Party/CANopenNode/301/CO_ODinterface.h ****     /**PDO flags bit-field provides one bit for each OD variable, which exist
 327:Middlewares/Third_Party/CANopenNode/301/CO_ODinterface.h ****      * inside OD object at specific sub index. If application clears that bit,
 328:Middlewares/Third_Party/CANopenNode/301/CO_ODinterface.h ****      * and OD variable is mapped to an event driven TPDO, then TPDO will be
 329:Middlewares/Third_Party/CANopenNode/301/CO_ODinterface.h ****      * sent.
 330:Middlewares/Third_Party/CANopenNode/301/CO_ODinterface.h ****      *
 331:Middlewares/Third_Party/CANopenNode/301/CO_ODinterface.h ****      * @ref OD_FLAGS_PDO_SIZE can have a value from 0 to 32 bytes, which
 332:Middlewares/Third_Party/CANopenNode/301/CO_ODinterface.h ****      * corresponds to 0 to 256 available bits. If, for example,
 333:Middlewares/Third_Party/CANopenNode/301/CO_ODinterface.h ****      * @ref OD_FLAGS_PDO_SIZE has value 4, then OD variables with sub index up
 334:Middlewares/Third_Party/CANopenNode/301/CO_ODinterface.h ****      * to 31 will have the TPDO requesting functionality.
 335:Middlewares/Third_Party/CANopenNode/301/CO_ODinterface.h ****      * See also @ref OD_requestTPDO and @ref OD_TPDOtransmitted. */
 336:Middlewares/Third_Party/CANopenNode/301/CO_ODinterface.h ****     uint8_t flagsPDO[OD_FLAGS_PDO_SIZE];
 337:Middlewares/Third_Party/CANopenNode/301/CO_ODinterface.h **** #endif
 338:Middlewares/Third_Party/CANopenNode/301/CO_ODinterface.h **** } OD_extension_t;
 339:Middlewares/Third_Party/CANopenNode/301/CO_ODinterface.h **** 
 340:Middlewares/Third_Party/CANopenNode/301/CO_ODinterface.h **** 
 341:Middlewares/Third_Party/CANopenNode/301/CO_ODinterface.h **** /**
 342:Middlewares/Third_Party/CANopenNode/301/CO_ODinterface.h ****  * Object Dictionary entry for one OD object.
 343:Middlewares/Third_Party/CANopenNode/301/CO_ODinterface.h ****  *
 344:Middlewares/Third_Party/CANopenNode/301/CO_ODinterface.h ****  * OD entries are collected inside OD_t as array (list). Each OD entry contains
 345:Middlewares/Third_Party/CANopenNode/301/CO_ODinterface.h ****  * basic information about OD object (index and subEntriesCount), pointer to
 346:Middlewares/Third_Party/CANopenNode/301/CO_ODinterface.h ****  * odObject with additional information about var, array or record entry and
 347:Middlewares/Third_Party/CANopenNode/301/CO_ODinterface.h ****  * pointer to extension, configurable by application.
 348:Middlewares/Third_Party/CANopenNode/301/CO_ODinterface.h ****  */
 349:Middlewares/Third_Party/CANopenNode/301/CO_ODinterface.h **** typedef struct {
 350:Middlewares/Third_Party/CANopenNode/301/CO_ODinterface.h ****     /** Object Dictionary index */
 351:Middlewares/Third_Party/CANopenNode/301/CO_ODinterface.h ****     uint16_t index;
 352:Middlewares/Third_Party/CANopenNode/301/CO_ODinterface.h ****     /** Number of all sub-entries, including sub-entry at sub-index 0 */
 353:Middlewares/Third_Party/CANopenNode/301/CO_ODinterface.h ****     uint8_t subEntriesCount;
 354:Middlewares/Third_Party/CANopenNode/301/CO_ODinterface.h ****     /** Type of the odObject, indicated by @ref OD_objectTypes_t enumerator. */
 355:Middlewares/Third_Party/CANopenNode/301/CO_ODinterface.h ****     uint8_t odObjectType;
 356:Middlewares/Third_Party/CANopenNode/301/CO_ODinterface.h ****     /** OD object of type indicated by odObjectType, from which @ref OD_getSub()
 357:Middlewares/Third_Party/CANopenNode/301/CO_ODinterface.h ****      * fetches the information */
 358:Middlewares/Third_Party/CANopenNode/301/CO_ODinterface.h ****     CO_PROGMEM void *odObject;
 359:Middlewares/Third_Party/CANopenNode/301/CO_ODinterface.h ****     /** Extension to OD, specified by application */
 360:Middlewares/Third_Party/CANopenNode/301/CO_ODinterface.h ****     OD_extension_t *extension;
 361:Middlewares/Third_Party/CANopenNode/301/CO_ODinterface.h **** } OD_entry_t;
 362:Middlewares/Third_Party/CANopenNode/301/CO_ODinterface.h **** 
 363:Middlewares/Third_Party/CANopenNode/301/CO_ODinterface.h **** 
 364:Middlewares/Third_Party/CANopenNode/301/CO_ODinterface.h **** /**
 365:Middlewares/Third_Party/CANopenNode/301/CO_ODinterface.h ****  * Object Dictionary
 366:Middlewares/Third_Party/CANopenNode/301/CO_ODinterface.h ****  */
 367:Middlewares/Third_Party/CANopenNode/301/CO_ODinterface.h **** typedef struct {
 368:Middlewares/Third_Party/CANopenNode/301/CO_ODinterface.h ****     /** Number of elements in the list, without last element, which is blank */
 369:Middlewares/Third_Party/CANopenNode/301/CO_ODinterface.h ****     uint16_t size;
 370:Middlewares/Third_Party/CANopenNode/301/CO_ODinterface.h ****     /** List OD entries (table of contents), ordered by index */
 371:Middlewares/Third_Party/CANopenNode/301/CO_ODinterface.h ****     OD_entry_t *list;
 372:Middlewares/Third_Party/CANopenNode/301/CO_ODinterface.h **** } OD_t;
 373:Middlewares/Third_Party/CANopenNode/301/CO_ODinterface.h **** 
 374:Middlewares/Third_Party/CANopenNode/301/CO_ODinterface.h **** 
 375:Middlewares/Third_Party/CANopenNode/301/CO_ODinterface.h **** /**
 376:Middlewares/Third_Party/CANopenNode/301/CO_ODinterface.h ****  * Read value from original OD location
 377:Middlewares/Third_Party/CANopenNode/301/CO_ODinterface.h ****  *
 378:Middlewares/Third_Party/CANopenNode/301/CO_ODinterface.h ****  * This function can be used inside read / write functions, specified by
 379:Middlewares/Third_Party/CANopenNode/301/CO_ODinterface.h ****  * @ref OD_extension_init(). It reads data directly from memory location
 380:Middlewares/Third_Party/CANopenNode/301/CO_ODinterface.h ****  * specified by Object dictionary. If no IO extension is used on OD entry, then
ARM GAS  C:\Users\walker\AppData\Local\Temp\ccbkesbg.s 			page 36


 381:Middlewares/Third_Party/CANopenNode/301/CO_ODinterface.h ****  * io->read returned by @ref OD_getSub() equals to this function. See
 382:Middlewares/Third_Party/CANopenNode/301/CO_ODinterface.h ****  * also @ref OD_IO_t.
 383:Middlewares/Third_Party/CANopenNode/301/CO_ODinterface.h ****  */
 384:Middlewares/Third_Party/CANopenNode/301/CO_ODinterface.h **** ODR_t OD_readOriginal(OD_stream_t *stream, void *buf,
 385:Middlewares/Third_Party/CANopenNode/301/CO_ODinterface.h ****                       OD_size_t count, OD_size_t *countRead);
 386:Middlewares/Third_Party/CANopenNode/301/CO_ODinterface.h **** 
 387:Middlewares/Third_Party/CANopenNode/301/CO_ODinterface.h **** 
 388:Middlewares/Third_Party/CANopenNode/301/CO_ODinterface.h **** /**
 389:Middlewares/Third_Party/CANopenNode/301/CO_ODinterface.h ****  * Write value to original OD location
 390:Middlewares/Third_Party/CANopenNode/301/CO_ODinterface.h ****  *
 391:Middlewares/Third_Party/CANopenNode/301/CO_ODinterface.h ****  * This function can be used inside read / write functions, specified by
 392:Middlewares/Third_Party/CANopenNode/301/CO_ODinterface.h ****  * @ref OD_extension_init(). It writes data directly to memory location
 393:Middlewares/Third_Party/CANopenNode/301/CO_ODinterface.h ****  * specified by Object dictionary. If no IO extension is used on OD entry, then
 394:Middlewares/Third_Party/CANopenNode/301/CO_ODinterface.h ****  * io->write returned by @ref OD_getSub() equals to this function. See
 395:Middlewares/Third_Party/CANopenNode/301/CO_ODinterface.h ****  * also @ref OD_IO_t.
 396:Middlewares/Third_Party/CANopenNode/301/CO_ODinterface.h ****  */
 397:Middlewares/Third_Party/CANopenNode/301/CO_ODinterface.h **** ODR_t OD_writeOriginal(OD_stream_t *stream, const void *buf,
 398:Middlewares/Third_Party/CANopenNode/301/CO_ODinterface.h ****                        OD_size_t count, OD_size_t *countWritten);
 399:Middlewares/Third_Party/CANopenNode/301/CO_ODinterface.h **** 
 400:Middlewares/Third_Party/CANopenNode/301/CO_ODinterface.h **** 
 401:Middlewares/Third_Party/CANopenNode/301/CO_ODinterface.h **** /**
 402:Middlewares/Third_Party/CANopenNode/301/CO_ODinterface.h ****  * Find OD entry in Object Dictionary
 403:Middlewares/Third_Party/CANopenNode/301/CO_ODinterface.h ****  *
 404:Middlewares/Third_Party/CANopenNode/301/CO_ODinterface.h ****  * @param od Object Dictionary
 405:Middlewares/Third_Party/CANopenNode/301/CO_ODinterface.h ****  * @param index CANopen Object Dictionary index of object in Object Dictionary
 406:Middlewares/Third_Party/CANopenNode/301/CO_ODinterface.h ****  *
 407:Middlewares/Third_Party/CANopenNode/301/CO_ODinterface.h ****  * @return Pointer to OD entry or NULL if not found
 408:Middlewares/Third_Party/CANopenNode/301/CO_ODinterface.h ****  */
 409:Middlewares/Third_Party/CANopenNode/301/CO_ODinterface.h **** OD_entry_t *OD_find(OD_t *od, uint16_t index);
 410:Middlewares/Third_Party/CANopenNode/301/CO_ODinterface.h **** 
 411:Middlewares/Third_Party/CANopenNode/301/CO_ODinterface.h **** 
 412:Middlewares/Third_Party/CANopenNode/301/CO_ODinterface.h **** /**
 413:Middlewares/Third_Party/CANopenNode/301/CO_ODinterface.h ****  * Find sub-object with specified sub-index on OD entry returned by OD_find.
 414:Middlewares/Third_Party/CANopenNode/301/CO_ODinterface.h ****  * Function populates io structure with sub-object data.
 415:Middlewares/Third_Party/CANopenNode/301/CO_ODinterface.h ****  *
 416:Middlewares/Third_Party/CANopenNode/301/CO_ODinterface.h ****  * @warning
 417:Middlewares/Third_Party/CANopenNode/301/CO_ODinterface.h ****  * Read and write functions may be called from different threads, so critical
 418:Middlewares/Third_Party/CANopenNode/301/CO_ODinterface.h ****  * sections in custom functions must be observed, see @ref CO_critical_sections.
 419:Middlewares/Third_Party/CANopenNode/301/CO_ODinterface.h ****  *
 420:Middlewares/Third_Party/CANopenNode/301/CO_ODinterface.h ****  * @param entry OD entry returned by @ref OD_find().
 421:Middlewares/Third_Party/CANopenNode/301/CO_ODinterface.h ****  * @param subIndex Sub-index of the variable from the OD object.
 422:Middlewares/Third_Party/CANopenNode/301/CO_ODinterface.h ****  * @param [out] io Structure will be populated on success.
 423:Middlewares/Third_Party/CANopenNode/301/CO_ODinterface.h ****  * @param odOrig If true, then potential IO extension on entry will be
 424:Middlewares/Third_Party/CANopenNode/301/CO_ODinterface.h ****  * ignored and access to data entry in the original OD location will be returned
 425:Middlewares/Third_Party/CANopenNode/301/CO_ODinterface.h ****  *
 426:Middlewares/Third_Party/CANopenNode/301/CO_ODinterface.h ****  * @return Value from @ref ODR_t, "ODR_OK" in case of success.
 427:Middlewares/Third_Party/CANopenNode/301/CO_ODinterface.h ****  */
 428:Middlewares/Third_Party/CANopenNode/301/CO_ODinterface.h **** ODR_t OD_getSub(const OD_entry_t *entry, uint8_t subIndex,
 429:Middlewares/Third_Party/CANopenNode/301/CO_ODinterface.h ****                 OD_IO_t *io, bool_t odOrig);
 430:Middlewares/Third_Party/CANopenNode/301/CO_ODinterface.h **** 
 431:Middlewares/Third_Party/CANopenNode/301/CO_ODinterface.h **** 
 432:Middlewares/Third_Party/CANopenNode/301/CO_ODinterface.h **** /**
 433:Middlewares/Third_Party/CANopenNode/301/CO_ODinterface.h ****  * Return index from OD entry
 434:Middlewares/Third_Party/CANopenNode/301/CO_ODinterface.h ****  *
 435:Middlewares/Third_Party/CANopenNode/301/CO_ODinterface.h ****  * @param entry OD entry returned by @ref OD_find().
 436:Middlewares/Third_Party/CANopenNode/301/CO_ODinterface.h ****  *
 437:Middlewares/Third_Party/CANopenNode/301/CO_ODinterface.h ****  * @return OD index
ARM GAS  C:\Users\walker\AppData\Local\Temp\ccbkesbg.s 			page 37


 438:Middlewares/Third_Party/CANopenNode/301/CO_ODinterface.h ****  */
 439:Middlewares/Third_Party/CANopenNode/301/CO_ODinterface.h **** static inline uint16_t OD_getIndex(const OD_entry_t *entry) {
 533              		.loc 3 439 24 view .LVU159
 534              	.LBB23:
 440:Middlewares/Third_Party/CANopenNode/301/CO_ODinterface.h ****     return (entry != NULL) ? entry->index : 0;
 535              		.loc 3 440 5 view .LVU160
 536              		.loc 3 440 43 is_stmt 0 view .LVU161
 537 005c 3B88     		ldrh	r3, [r7]
 538              	.LVL55:
 539              		.loc 3 440 43 view .LVU162
 540              	.LBE23:
 541              	.LBE22:
 149:Middlewares/Third_Party/CANopenNode/301/CO_HBconsumer.c ****             return CO_ERROR_OD_PARAMETERS;
 542              		.loc 1 149 43 view .LVU163
 543 005e C8F80030 		str	r3, [r8]
 544              	.L35:
 150:Middlewares/Third_Party/CANopenNode/301/CO_HBconsumer.c ****         }
 545              		.loc 1 150 13 is_stmt 1 view .LVU164
 150:Middlewares/Third_Party/CANopenNode/301/CO_HBconsumer.c ****         }
 546              		.loc 1 150 20 is_stmt 0 view .LVU165
 547 0062 6FF00B03 		mvn	r3, #11
 548 0066 2CE0     		b	.L31
 549              	.LVL56:
 550              	.L38:
 159:Middlewares/Third_Party/CANopenNode/301/CO_HBconsumer.c ****                 return ret;
 551              		.loc 1 159 13 is_stmt 1 view .LVU166
 159:Middlewares/Third_Party/CANopenNode/301/CO_HBconsumer.c ****                 return ret;
 552              		.loc 1 159 16 is_stmt 0 view .LVU167
 553 0068 13F10C0F 		cmn	r3, #12
 554 006c 29D1     		bne	.L31
 555              	.L37:
 556              	.LBE21:
 145:Middlewares/Third_Party/CANopenNode/301/CO_HBconsumer.c ****         uint32_t val;
 557              		.loc 1 145 61 is_stmt 1 view .LVU168
 558              	.LVL57:
 145:Middlewares/Third_Party/CANopenNode/301/CO_HBconsumer.c ****         uint32_t val;
 559              		.loc 1 145 62 is_stmt 0 view .LVU169
 560 006e 2546     		mov	r5, r4
 561              	.LVL58:
 562              	.L33:
 145:Middlewares/Third_Party/CANopenNode/301/CO_HBconsumer.c ****         uint32_t val;
 563              		.loc 1 145 25 is_stmt 1 discriminator 1 view .LVU170
 145:Middlewares/Third_Party/CANopenNode/301/CO_HBconsumer.c ****         uint32_t val;
 564              		.loc 1 145 35 is_stmt 0 discriminator 1 view .LVU171
 565 0070 337A     		ldrb	r3, [r6, #8]	@ zero_extendqisi2
 145:Middlewares/Third_Party/CANopenNode/301/CO_HBconsumer.c ****         uint32_t val;
 566              		.loc 1 145 5 discriminator 1 view .LVU172
 567 0072 AB42     		cmp	r3, r5
 568 0074 1DD9     		bls	.L46
 569              	.LBB28:
 146:Middlewares/Third_Party/CANopenNode/301/CO_HBconsumer.c ****         odRet = OD_get_u32(OD_1016_HBcons, i + 1, &val, true);
 570              		.loc 1 146 9 is_stmt 1 view .LVU173
 147:Middlewares/Third_Party/CANopenNode/301/CO_HBconsumer.c ****         if (odRet != ODR_OK) {
 571              		.loc 1 147 9 view .LVU174
 147:Middlewares/Third_Party/CANopenNode/301/CO_HBconsumer.c ****         if (odRet != ODR_OK) {
 572              		.loc 1 147 17 is_stmt 0 view .LVU175
 573 0076 6C1C     		adds	r4, r5, #1
ARM GAS  C:\Users\walker\AppData\Local\Temp\ccbkesbg.s 			page 38


 574 0078 E4B2     		uxtb	r4, r4
 575              	.LVL59:
 576              	.LBB24:
 577              	.LBI24:
 441:Middlewares/Third_Party/CANopenNode/301/CO_ODinterface.h **** }
 442:Middlewares/Third_Party/CANopenNode/301/CO_ODinterface.h **** 
 443:Middlewares/Third_Party/CANopenNode/301/CO_ODinterface.h **** 
 444:Middlewares/Third_Party/CANopenNode/301/CO_ODinterface.h **** /**
 445:Middlewares/Third_Party/CANopenNode/301/CO_ODinterface.h ****  * Check, if OD variable is mappable to PDO or SRDO.
 446:Middlewares/Third_Party/CANopenNode/301/CO_ODinterface.h ****  *
 447:Middlewares/Third_Party/CANopenNode/301/CO_ODinterface.h ****  * If OD variable is mappable, then it may be necessary to protect read/write
 448:Middlewares/Third_Party/CANopenNode/301/CO_ODinterface.h ****  * access from mainline function. See @ref CO_critical_sections.
 449:Middlewares/Third_Party/CANopenNode/301/CO_ODinterface.h ****  *
 450:Middlewares/Third_Party/CANopenNode/301/CO_ODinterface.h ****  * @param stream Object Dictionary stream object.
 451:Middlewares/Third_Party/CANopenNode/301/CO_ODinterface.h ****  *
 452:Middlewares/Third_Party/CANopenNode/301/CO_ODinterface.h ****  * @return true, if OD variable is mappable.
 453:Middlewares/Third_Party/CANopenNode/301/CO_ODinterface.h ****  */
 454:Middlewares/Third_Party/CANopenNode/301/CO_ODinterface.h **** static inline bool_t OD_mappable(OD_stream_t *stream) {
 455:Middlewares/Third_Party/CANopenNode/301/CO_ODinterface.h ****     return (stream != NULL)
 456:Middlewares/Third_Party/CANopenNode/301/CO_ODinterface.h ****          ? (stream->attribute & (ODA_TRPDO | ODA_TRSRDO)) != 0 : false;
 457:Middlewares/Third_Party/CANopenNode/301/CO_ODinterface.h **** }
 458:Middlewares/Third_Party/CANopenNode/301/CO_ODinterface.h **** 
 459:Middlewares/Third_Party/CANopenNode/301/CO_ODinterface.h **** 
 460:Middlewares/Third_Party/CANopenNode/301/CO_ODinterface.h **** /**
 461:Middlewares/Third_Party/CANopenNode/301/CO_ODinterface.h ****  * Restart read or write operation on OD variable
 462:Middlewares/Third_Party/CANopenNode/301/CO_ODinterface.h ****  *
 463:Middlewares/Third_Party/CANopenNode/301/CO_ODinterface.h ****  * It is not necessary to call this function, if stream was initialized by
 464:Middlewares/Third_Party/CANopenNode/301/CO_ODinterface.h ****  * @ref OD_getSub(). It is also not necessary to call this function, if
 465:Middlewares/Third_Party/CANopenNode/301/CO_ODinterface.h ****  * previous read or write was successfully finished.
 466:Middlewares/Third_Party/CANopenNode/301/CO_ODinterface.h ****  *
 467:Middlewares/Third_Party/CANopenNode/301/CO_ODinterface.h ****  * @param stream Object Dictionary stream object.
 468:Middlewares/Third_Party/CANopenNode/301/CO_ODinterface.h ****  */
 469:Middlewares/Third_Party/CANopenNode/301/CO_ODinterface.h **** static inline void OD_rwRestart(OD_stream_t *stream) {
 470:Middlewares/Third_Party/CANopenNode/301/CO_ODinterface.h ****     if (stream != NULL) stream->dataOffset = 0;
 471:Middlewares/Third_Party/CANopenNode/301/CO_ODinterface.h **** }
 472:Middlewares/Third_Party/CANopenNode/301/CO_ODinterface.h **** 
 473:Middlewares/Third_Party/CANopenNode/301/CO_ODinterface.h **** 
 474:Middlewares/Third_Party/CANopenNode/301/CO_ODinterface.h **** /**
 475:Middlewares/Third_Party/CANopenNode/301/CO_ODinterface.h ****  * Get TPDO request flags for OD entry.
 476:Middlewares/Third_Party/CANopenNode/301/CO_ODinterface.h ****  *
 477:Middlewares/Third_Party/CANopenNode/301/CO_ODinterface.h ****  * flagsPDO can be used for @ref OD_requestTPDO() or @ref OD_TPDOtransmitted().
 478:Middlewares/Third_Party/CANopenNode/301/CO_ODinterface.h ****  *
 479:Middlewares/Third_Party/CANopenNode/301/CO_ODinterface.h ****  * @param entry OD entry returned by @ref OD_find().
 480:Middlewares/Third_Party/CANopenNode/301/CO_ODinterface.h ****  *
 481:Middlewares/Third_Party/CANopenNode/301/CO_ODinterface.h ****  * @return pointer to flagsPDO
 482:Middlewares/Third_Party/CANopenNode/301/CO_ODinterface.h ****  */
 483:Middlewares/Third_Party/CANopenNode/301/CO_ODinterface.h **** static inline uint8_t *OD_getFlagsPDO(OD_entry_t *entry) {
 484:Middlewares/Third_Party/CANopenNode/301/CO_ODinterface.h **** #if OD_FLAGS_PDO_SIZE > 0
 485:Middlewares/Third_Party/CANopenNode/301/CO_ODinterface.h ****     if (entry != NULL && entry->extension != NULL) {
 486:Middlewares/Third_Party/CANopenNode/301/CO_ODinterface.h ****         return &entry->extension->flagsPDO[0];
 487:Middlewares/Third_Party/CANopenNode/301/CO_ODinterface.h ****     }
 488:Middlewares/Third_Party/CANopenNode/301/CO_ODinterface.h **** #endif
 489:Middlewares/Third_Party/CANopenNode/301/CO_ODinterface.h ****     return 0;
 490:Middlewares/Third_Party/CANopenNode/301/CO_ODinterface.h **** }
 491:Middlewares/Third_Party/CANopenNode/301/CO_ODinterface.h **** 
 492:Middlewares/Third_Party/CANopenNode/301/CO_ODinterface.h **** 
 493:Middlewares/Third_Party/CANopenNode/301/CO_ODinterface.h **** /**
ARM GAS  C:\Users\walker\AppData\Local\Temp\ccbkesbg.s 			page 39


 494:Middlewares/Third_Party/CANopenNode/301/CO_ODinterface.h ****  * Request TPDO, to which OD variable is mapped
 495:Middlewares/Third_Party/CANopenNode/301/CO_ODinterface.h ****  *
 496:Middlewares/Third_Party/CANopenNode/301/CO_ODinterface.h ****  * Function clears the flagPDO bit, which corresponds to OD variable at specific
 497:Middlewares/Third_Party/CANopenNode/301/CO_ODinterface.h ****  * OD index and subindex. For this functionality to work, @ref OD_extension_t
 498:Middlewares/Third_Party/CANopenNode/301/CO_ODinterface.h ****  * must be enabled on OD variable. If OD variable is mapped to any TPDO with
 499:Middlewares/Third_Party/CANopenNode/301/CO_ODinterface.h ****  * event driven transmission, then TPDO will be transmitted after this function
 500:Middlewares/Third_Party/CANopenNode/301/CO_ODinterface.h ****  * call. If OD variable is mapped to more than one TPDO with event driven
 501:Middlewares/Third_Party/CANopenNode/301/CO_ODinterface.h ****  * transmission, only the first matched TPDO will be transmitted.
 502:Middlewares/Third_Party/CANopenNode/301/CO_ODinterface.h ****  *
 503:Middlewares/Third_Party/CANopenNode/301/CO_ODinterface.h ****  * TPDO event driven transmission is enabled, if TPDO communication parameter,
 504:Middlewares/Third_Party/CANopenNode/301/CO_ODinterface.h ****  * transmission type is set to 0, 254 or 255. For other transmission types
 505:Middlewares/Third_Party/CANopenNode/301/CO_ODinterface.h ****  * (synchronous) flagPDO bit is ignored.
 506:Middlewares/Third_Party/CANopenNode/301/CO_ODinterface.h ****  *
 507:Middlewares/Third_Party/CANopenNode/301/CO_ODinterface.h ****  * @param flagsPDO TPDO request flags returned by @ref OD_getFlagsPDO.
 508:Middlewares/Third_Party/CANopenNode/301/CO_ODinterface.h ****  * @param subIndex subIndex of the OD variable.
 509:Middlewares/Third_Party/CANopenNode/301/CO_ODinterface.h ****  */
 510:Middlewares/Third_Party/CANopenNode/301/CO_ODinterface.h **** static inline void OD_requestTPDO(uint8_t *flagsPDO, uint8_t subIndex) {
 511:Middlewares/Third_Party/CANopenNode/301/CO_ODinterface.h **** #if OD_FLAGS_PDO_SIZE > 0
 512:Middlewares/Third_Party/CANopenNode/301/CO_ODinterface.h ****     if (flagsPDO != NULL && subIndex < (OD_FLAGS_PDO_SIZE * 8)) {
 513:Middlewares/Third_Party/CANopenNode/301/CO_ODinterface.h ****         /* clear subIndex-th bit */
 514:Middlewares/Third_Party/CANopenNode/301/CO_ODinterface.h ****         uint8_t mask = ~(1 << (subIndex & 0x07));
 515:Middlewares/Third_Party/CANopenNode/301/CO_ODinterface.h ****         flagsPDO[subIndex >> 3] &= mask;
 516:Middlewares/Third_Party/CANopenNode/301/CO_ODinterface.h ****     }
 517:Middlewares/Third_Party/CANopenNode/301/CO_ODinterface.h **** #endif
 518:Middlewares/Third_Party/CANopenNode/301/CO_ODinterface.h **** }
 519:Middlewares/Third_Party/CANopenNode/301/CO_ODinterface.h **** 
 520:Middlewares/Third_Party/CANopenNode/301/CO_ODinterface.h **** 
 521:Middlewares/Third_Party/CANopenNode/301/CO_ODinterface.h **** /**
 522:Middlewares/Third_Party/CANopenNode/301/CO_ODinterface.h ****  * Check if requested TPDO was transmitted
 523:Middlewares/Third_Party/CANopenNode/301/CO_ODinterface.h ****  *
 524:Middlewares/Third_Party/CANopenNode/301/CO_ODinterface.h ****  * @param flagsPDO TPDO request flags returned by @ref OD_getFlagsPDO.
 525:Middlewares/Third_Party/CANopenNode/301/CO_ODinterface.h ****  * @param subIndex subIndex of the OD variable.
 526:Middlewares/Third_Party/CANopenNode/301/CO_ODinterface.h ****  *
 527:Middlewares/Third_Party/CANopenNode/301/CO_ODinterface.h ****  * @return Return true if event driven TPDO with mapping to OD variable,
 528:Middlewares/Third_Party/CANopenNode/301/CO_ODinterface.h ****  * indicated by flagsPDO and subIndex, was transmitted since last
 529:Middlewares/Third_Party/CANopenNode/301/CO_ODinterface.h ****  * @ref OD_requestTPDO call. If there was no @ref OD_requestTPDO call yet and
 530:Middlewares/Third_Party/CANopenNode/301/CO_ODinterface.h ****  * TPDO was transmitted by other event, function also returns true.
 531:Middlewares/Third_Party/CANopenNode/301/CO_ODinterface.h ****  */
 532:Middlewares/Third_Party/CANopenNode/301/CO_ODinterface.h **** static inline bool_t OD_TPDOtransmitted(uint8_t *flagsPDO, uint8_t subIndex) {
 533:Middlewares/Third_Party/CANopenNode/301/CO_ODinterface.h **** #if OD_FLAGS_PDO_SIZE > 0
 534:Middlewares/Third_Party/CANopenNode/301/CO_ODinterface.h ****     if (flagsPDO != NULL && subIndex < (OD_FLAGS_PDO_SIZE * 8)) {
 535:Middlewares/Third_Party/CANopenNode/301/CO_ODinterface.h ****         /* return true, if subIndex-th bit is set */
 536:Middlewares/Third_Party/CANopenNode/301/CO_ODinterface.h ****         uint8_t mask = 1 << (subIndex & 0x07);
 537:Middlewares/Third_Party/CANopenNode/301/CO_ODinterface.h ****         if ((flagsPDO[subIndex >> 3] & mask) != 0) {
 538:Middlewares/Third_Party/CANopenNode/301/CO_ODinterface.h ****             return true;
 539:Middlewares/Third_Party/CANopenNode/301/CO_ODinterface.h ****         }
 540:Middlewares/Third_Party/CANopenNode/301/CO_ODinterface.h ****     }
 541:Middlewares/Third_Party/CANopenNode/301/CO_ODinterface.h **** #endif
 542:Middlewares/Third_Party/CANopenNode/301/CO_ODinterface.h ****     return false;
 543:Middlewares/Third_Party/CANopenNode/301/CO_ODinterface.h **** }
 544:Middlewares/Third_Party/CANopenNode/301/CO_ODinterface.h **** 
 545:Middlewares/Third_Party/CANopenNode/301/CO_ODinterface.h **** 
 546:Middlewares/Third_Party/CANopenNode/301/CO_ODinterface.h **** /**
 547:Middlewares/Third_Party/CANopenNode/301/CO_ODinterface.h ****  * Get SDO abort code from returnCode
 548:Middlewares/Third_Party/CANopenNode/301/CO_ODinterface.h ****  *
 549:Middlewares/Third_Party/CANopenNode/301/CO_ODinterface.h ****  * @param returnCode Returned from some OD access functions
 550:Middlewares/Third_Party/CANopenNode/301/CO_ODinterface.h ****  *
ARM GAS  C:\Users\walker\AppData\Local\Temp\ccbkesbg.s 			page 40


 551:Middlewares/Third_Party/CANopenNode/301/CO_ODinterface.h ****  * @return Corresponding @ref CO_SDO_abortCode_t
 552:Middlewares/Third_Party/CANopenNode/301/CO_ODinterface.h ****  */
 553:Middlewares/Third_Party/CANopenNode/301/CO_ODinterface.h **** uint32_t OD_getSDOabCode(ODR_t returnCode);
 554:Middlewares/Third_Party/CANopenNode/301/CO_ODinterface.h **** 
 555:Middlewares/Third_Party/CANopenNode/301/CO_ODinterface.h **** 
 556:Middlewares/Third_Party/CANopenNode/301/CO_ODinterface.h **** /**
 557:Middlewares/Third_Party/CANopenNode/301/CO_ODinterface.h ****  * Extend OD object with own read/write functions and/or flagsPDO
 558:Middlewares/Third_Party/CANopenNode/301/CO_ODinterface.h ****  *
 559:Middlewares/Third_Party/CANopenNode/301/CO_ODinterface.h ****  * This function gives application very powerful tool: definition of own IO
 560:Middlewares/Third_Party/CANopenNode/301/CO_ODinterface.h ****  * access on OD object. Structure and attributes are the same as defined in
 561:Middlewares/Third_Party/CANopenNode/301/CO_ODinterface.h ****  * original OD object, but data are read directly from (or written directly to)
 562:Middlewares/Third_Party/CANopenNode/301/CO_ODinterface.h ****  * application specified object via custom function calls.
 563:Middlewares/Third_Party/CANopenNode/301/CO_ODinterface.h ****  *
 564:Middlewares/Third_Party/CANopenNode/301/CO_ODinterface.h ****  * Before this function specifies extension, OD variables are accessed from
 565:Middlewares/Third_Party/CANopenNode/301/CO_ODinterface.h ****  * original OD location. After this function specifies extension OD variables
 566:Middlewares/Third_Party/CANopenNode/301/CO_ODinterface.h ****  * are accessed from read/write functions specified by extension. (Except when
 567:Middlewares/Third_Party/CANopenNode/301/CO_ODinterface.h ****  * "odOrig" argument to @ref OD_getSub() is set to true.)
 568:Middlewares/Third_Party/CANopenNode/301/CO_ODinterface.h ****  *
 569:Middlewares/Third_Party/CANopenNode/301/CO_ODinterface.h ****  * This function must also be used, when flagsPDO needs to be enabled for
 570:Middlewares/Third_Party/CANopenNode/301/CO_ODinterface.h ****  * specific entry.
 571:Middlewares/Third_Party/CANopenNode/301/CO_ODinterface.h ****  *
 572:Middlewares/Third_Party/CANopenNode/301/CO_ODinterface.h ****  * @warning
 573:Middlewares/Third_Party/CANopenNode/301/CO_ODinterface.h ****  * Object dictionary storage works only directly on OD variables. It does not
 574:Middlewares/Third_Party/CANopenNode/301/CO_ODinterface.h ****  * access read function specified here. So, if extended OD objects needs to be
 575:Middlewares/Third_Party/CANopenNode/301/CO_ODinterface.h ****  * preserved, then @ref OD_writeOriginal can be used inside custom write
 576:Middlewares/Third_Party/CANopenNode/301/CO_ODinterface.h ****  * function.
 577:Middlewares/Third_Party/CANopenNode/301/CO_ODinterface.h ****  *
 578:Middlewares/Third_Party/CANopenNode/301/CO_ODinterface.h ****  * @warning
 579:Middlewares/Third_Party/CANopenNode/301/CO_ODinterface.h ****  * Read and write functions may be called from different threads, so critical
 580:Middlewares/Third_Party/CANopenNode/301/CO_ODinterface.h ****  * sections in custom functions must be observed, see @ref CO_critical_sections.
 581:Middlewares/Third_Party/CANopenNode/301/CO_ODinterface.h ****  *
 582:Middlewares/Third_Party/CANopenNode/301/CO_ODinterface.h ****  * @param entry OD entry returned by @ref OD_find().
 583:Middlewares/Third_Party/CANopenNode/301/CO_ODinterface.h ****  * @param extension Extension object, which must be initialized externally.
 584:Middlewares/Third_Party/CANopenNode/301/CO_ODinterface.h ****  * Extension object must exist permanently. If NULL, extension will be removed.
 585:Middlewares/Third_Party/CANopenNode/301/CO_ODinterface.h ****  *
 586:Middlewares/Third_Party/CANopenNode/301/CO_ODinterface.h ****  * @return "ODR_OK" on success, "ODR_IDX_NOT_EXIST" if OD object doesn't exist.
 587:Middlewares/Third_Party/CANopenNode/301/CO_ODinterface.h ****  */
 588:Middlewares/Third_Party/CANopenNode/301/CO_ODinterface.h **** static inline ODR_t OD_extension_init(OD_entry_t *entry,
 589:Middlewares/Third_Party/CANopenNode/301/CO_ODinterface.h ****                                       OD_extension_t *extension)
 590:Middlewares/Third_Party/CANopenNode/301/CO_ODinterface.h **** {
 591:Middlewares/Third_Party/CANopenNode/301/CO_ODinterface.h ****     if (entry == NULL) return ODR_IDX_NOT_EXIST;
 592:Middlewares/Third_Party/CANopenNode/301/CO_ODinterface.h ****     entry->extension = extension;
 593:Middlewares/Third_Party/CANopenNode/301/CO_ODinterface.h ****     return ODR_OK;
 594:Middlewares/Third_Party/CANopenNode/301/CO_ODinterface.h **** }
 595:Middlewares/Third_Party/CANopenNode/301/CO_ODinterface.h **** 
 596:Middlewares/Third_Party/CANopenNode/301/CO_ODinterface.h **** 
 597:Middlewares/Third_Party/CANopenNode/301/CO_ODinterface.h **** /**
 598:Middlewares/Third_Party/CANopenNode/301/CO_ODinterface.h ****  * @defgroup CO_ODgetSetters Getters and setters
 599:Middlewares/Third_Party/CANopenNode/301/CO_ODinterface.h ****  * @{
 600:Middlewares/Third_Party/CANopenNode/301/CO_ODinterface.h ****  *
 601:Middlewares/Third_Party/CANopenNode/301/CO_ODinterface.h ****  * Getter and setter helper functions for accessing different types of Object
 602:Middlewares/Third_Party/CANopenNode/301/CO_ODinterface.h ****  * Dictionary variables.
 603:Middlewares/Third_Party/CANopenNode/301/CO_ODinterface.h ****  */
 604:Middlewares/Third_Party/CANopenNode/301/CO_ODinterface.h **** /**
 605:Middlewares/Third_Party/CANopenNode/301/CO_ODinterface.h ****  * Get variable from Object Dictionary
 606:Middlewares/Third_Party/CANopenNode/301/CO_ODinterface.h ****  *
 607:Middlewares/Third_Party/CANopenNode/301/CO_ODinterface.h ****  * @param entry OD entry returned by @ref OD_find().
ARM GAS  C:\Users\walker\AppData\Local\Temp\ccbkesbg.s 			page 41


 608:Middlewares/Third_Party/CANopenNode/301/CO_ODinterface.h ****  * @param subIndex Sub-index of the variable from the OD object.
 609:Middlewares/Third_Party/CANopenNode/301/CO_ODinterface.h ****  * @param [out] val Value will be written here.
 610:Middlewares/Third_Party/CANopenNode/301/CO_ODinterface.h ****  * @param len Size of value to retrieve from OD.
 611:Middlewares/Third_Party/CANopenNode/301/CO_ODinterface.h ****  * @param odOrig If true, then potential IO extension on entry will be
 612:Middlewares/Third_Party/CANopenNode/301/CO_ODinterface.h ****  * ignored and data in the original OD location will be returned.
 613:Middlewares/Third_Party/CANopenNode/301/CO_ODinterface.h ****  *
 614:Middlewares/Third_Party/CANopenNode/301/CO_ODinterface.h ****  * @return Value from @ref ODR_t, "ODR_OK" in case of success. Error, if
 615:Middlewares/Third_Party/CANopenNode/301/CO_ODinterface.h ****  * variable does not exist in object dictionary or it does not have the correct
 616:Middlewares/Third_Party/CANopenNode/301/CO_ODinterface.h ****  * length or other reason.
 617:Middlewares/Third_Party/CANopenNode/301/CO_ODinterface.h ****  */
 618:Middlewares/Third_Party/CANopenNode/301/CO_ODinterface.h **** ODR_t OD_get_value(const OD_entry_t *entry, uint8_t subIndex,
 619:Middlewares/Third_Party/CANopenNode/301/CO_ODinterface.h ****                    void *val, OD_size_t len, bool_t odOrig);
 620:Middlewares/Third_Party/CANopenNode/301/CO_ODinterface.h **** 
 621:Middlewares/Third_Party/CANopenNode/301/CO_ODinterface.h **** /** Get int8_t variable from Object Dictionary, see @ref OD_get_value */
 622:Middlewares/Third_Party/CANopenNode/301/CO_ODinterface.h **** static inline ODR_t OD_get_i8(const OD_entry_t *entry, uint8_t subIndex,
 623:Middlewares/Third_Party/CANopenNode/301/CO_ODinterface.h ****                               int8_t *val, bool_t odOrig)
 624:Middlewares/Third_Party/CANopenNode/301/CO_ODinterface.h **** {
 625:Middlewares/Third_Party/CANopenNode/301/CO_ODinterface.h ****     return OD_get_value(entry, subIndex, val, sizeof(*val), odOrig);
 626:Middlewares/Third_Party/CANopenNode/301/CO_ODinterface.h **** }
 627:Middlewares/Third_Party/CANopenNode/301/CO_ODinterface.h **** 
 628:Middlewares/Third_Party/CANopenNode/301/CO_ODinterface.h **** /** Get int16_t variable from Object Dictionary, see @ref OD_get_value */
 629:Middlewares/Third_Party/CANopenNode/301/CO_ODinterface.h **** static inline ODR_t OD_get_i16(const OD_entry_t *entry, uint8_t subIndex,
 630:Middlewares/Third_Party/CANopenNode/301/CO_ODinterface.h ****                                int16_t *val, bool_t odOrig)
 631:Middlewares/Third_Party/CANopenNode/301/CO_ODinterface.h **** {
 632:Middlewares/Third_Party/CANopenNode/301/CO_ODinterface.h ****     return OD_get_value(entry, subIndex, val, sizeof(*val), odOrig);
 633:Middlewares/Third_Party/CANopenNode/301/CO_ODinterface.h **** }
 634:Middlewares/Third_Party/CANopenNode/301/CO_ODinterface.h **** 
 635:Middlewares/Third_Party/CANopenNode/301/CO_ODinterface.h **** /** Get int32_t variable from Object Dictionary, see @ref OD_get_value */
 636:Middlewares/Third_Party/CANopenNode/301/CO_ODinterface.h **** static inline ODR_t OD_get_i32(const OD_entry_t *entry, uint8_t subIndex,
 637:Middlewares/Third_Party/CANopenNode/301/CO_ODinterface.h ****                                int32_t *val, bool_t odOrig)
 638:Middlewares/Third_Party/CANopenNode/301/CO_ODinterface.h **** {
 639:Middlewares/Third_Party/CANopenNode/301/CO_ODinterface.h ****     return OD_get_value(entry, subIndex, val, sizeof(*val), odOrig);
 640:Middlewares/Third_Party/CANopenNode/301/CO_ODinterface.h **** }
 641:Middlewares/Third_Party/CANopenNode/301/CO_ODinterface.h **** 
 642:Middlewares/Third_Party/CANopenNode/301/CO_ODinterface.h **** /** Get int64_t variable from Object Dictionary, see @ref OD_get_value */
 643:Middlewares/Third_Party/CANopenNode/301/CO_ODinterface.h **** static inline ODR_t OD_get_i64(const OD_entry_t *entry, uint8_t subIndex,
 644:Middlewares/Third_Party/CANopenNode/301/CO_ODinterface.h ****                                int64_t *val, bool_t odOrig)
 645:Middlewares/Third_Party/CANopenNode/301/CO_ODinterface.h **** {
 646:Middlewares/Third_Party/CANopenNode/301/CO_ODinterface.h ****     return OD_get_value(entry, subIndex, val, sizeof(*val), odOrig);
 647:Middlewares/Third_Party/CANopenNode/301/CO_ODinterface.h **** }
 648:Middlewares/Third_Party/CANopenNode/301/CO_ODinterface.h **** 
 649:Middlewares/Third_Party/CANopenNode/301/CO_ODinterface.h **** /** Get uint8_t variable from Object Dictionary, see @ref OD_get_value */
 650:Middlewares/Third_Party/CANopenNode/301/CO_ODinterface.h **** static inline ODR_t OD_get_u8(const OD_entry_t *entry, uint8_t subIndex,
 651:Middlewares/Third_Party/CANopenNode/301/CO_ODinterface.h ****                               uint8_t *val, bool_t odOrig)
 652:Middlewares/Third_Party/CANopenNode/301/CO_ODinterface.h **** {
 653:Middlewares/Third_Party/CANopenNode/301/CO_ODinterface.h ****     return OD_get_value(entry, subIndex, val, sizeof(*val), odOrig);
 654:Middlewares/Third_Party/CANopenNode/301/CO_ODinterface.h **** }
 655:Middlewares/Third_Party/CANopenNode/301/CO_ODinterface.h **** 
 656:Middlewares/Third_Party/CANopenNode/301/CO_ODinterface.h **** /** Get uint16_t variable from Object Dictionary, see @ref OD_get_value */
 657:Middlewares/Third_Party/CANopenNode/301/CO_ODinterface.h **** static inline ODR_t OD_get_u16(const OD_entry_t *entry, uint8_t subIndex,
 658:Middlewares/Third_Party/CANopenNode/301/CO_ODinterface.h ****                                uint16_t *val, bool_t odOrig)
 659:Middlewares/Third_Party/CANopenNode/301/CO_ODinterface.h **** {
 660:Middlewares/Third_Party/CANopenNode/301/CO_ODinterface.h ****     return OD_get_value(entry, subIndex, val, sizeof(*val), odOrig);
 661:Middlewares/Third_Party/CANopenNode/301/CO_ODinterface.h **** }
 662:Middlewares/Third_Party/CANopenNode/301/CO_ODinterface.h **** 
 663:Middlewares/Third_Party/CANopenNode/301/CO_ODinterface.h **** /** Get uint32_t variable from Object Dictionary, see @ref OD_get_value */
 664:Middlewares/Third_Party/CANopenNode/301/CO_ODinterface.h **** static inline ODR_t OD_get_u32(const OD_entry_t *entry, uint8_t subIndex,
ARM GAS  C:\Users\walker\AppData\Local\Temp\ccbkesbg.s 			page 42


 578              		.loc 3 664 21 is_stmt 1 view .LVU176
 579              	.LBB25:
 665:Middlewares/Third_Party/CANopenNode/301/CO_ODinterface.h ****                                uint32_t *val, bool_t odOrig)
 666:Middlewares/Third_Party/CANopenNode/301/CO_ODinterface.h **** {
 667:Middlewares/Third_Party/CANopenNode/301/CO_ODinterface.h ****     return OD_get_value(entry, subIndex, val, sizeof(*val), odOrig);
 580              		.loc 3 667 5 view .LVU177
 581              		.loc 3 667 12 is_stmt 0 view .LVU178
 582 007a 0123     		movs	r3, #1
 583 007c 0093     		str	r3, [sp]
 584 007e 0423     		movs	r3, #4
 585 0080 03AA     		add	r2, sp, #12
 586              	.LVL60:
 587              		.loc 3 667 12 view .LVU179
 588 0082 2146     		mov	r1, r4
 589 0084 3846     		mov	r0, r7
 590 0086 FFF7FEFF 		bl	OD_get_value
 591              	.LVL61:
 592              		.loc 3 667 12 view .LVU180
 593              	.LBE25:
 594              	.LBE24:
 148:Middlewares/Third_Party/CANopenNode/301/CO_HBconsumer.c ****             if (errInfo != NULL) *errInfo = OD_getIndex(OD_1016_HBcons);
 595              		.loc 1 148 9 is_stmt 1 view .LVU181
 148:Middlewares/Third_Party/CANopenNode/301/CO_HBconsumer.c ****             if (errInfo != NULL) *errInfo = OD_getIndex(OD_1016_HBcons);
 596              		.loc 1 148 12 is_stmt 0 view .LVU182
 597 008a 0028     		cmp	r0, #0
 598 008c E3D1     		bne	.L47
 153:Middlewares/Third_Party/CANopenNode/301/CO_HBconsumer.c ****         uint16_t time = val & 0xFFFF;
 599              		.loc 1 153 9 is_stmt 1 view .LVU183
 153:Middlewares/Third_Party/CANopenNode/301/CO_HBconsumer.c ****         uint16_t time = val & 0xFFFF;
 600              		.loc 1 153 31 is_stmt 0 view .LVU184
 601 008e 039A     		ldr	r2, [sp, #12]
 602              	.LVL62:
 154:Middlewares/Third_Party/CANopenNode/301/CO_HBconsumer.c ****         CO_ReturnError_t ret = CO_HBconsumer_initEntry(HBcons, i, nodeId, time);
 603              		.loc 1 154 9 is_stmt 1 view .LVU185
 155:Middlewares/Third_Party/CANopenNode/301/CO_HBconsumer.c ****         if (ret != CO_ERROR_NO) {
 604              		.loc 1 155 9 view .LVU186
 155:Middlewares/Third_Party/CANopenNode/301/CO_HBconsumer.c ****         if (ret != CO_ERROR_NO) {
 605              		.loc 1 155 32 is_stmt 0 view .LVU187
 606 0090 93B2     		uxth	r3, r2
 607 0092 C2F30742 		ubfx	r2, r2, #16, #8
 608              	.LVL63:
 155:Middlewares/Third_Party/CANopenNode/301/CO_HBconsumer.c ****         if (ret != CO_ERROR_NO) {
 609              		.loc 1 155 32 view .LVU188
 610 0096 2946     		mov	r1, r5
 611 0098 3046     		mov	r0, r6
 612              	.LVL64:
 155:Middlewares/Third_Party/CANopenNode/301/CO_HBconsumer.c ****         if (ret != CO_ERROR_NO) {
 613              		.loc 1 155 32 view .LVU189
 614 009a FFF7FEFF 		bl	CO_HBconsumer_initEntry
 615              	.LVL65:
 156:Middlewares/Third_Party/CANopenNode/301/CO_HBconsumer.c ****             if (errInfo != NULL) *errInfo = OD_getIndex(OD_1016_HBcons);
 616              		.loc 1 156 9 is_stmt 1 view .LVU190
 156:Middlewares/Third_Party/CANopenNode/301/CO_HBconsumer.c ****             if (errInfo != NULL) *errInfo = OD_getIndex(OD_1016_HBcons);
 617              		.loc 1 156 12 is_stmt 0 view .LVU191
 618 009e 0346     		mov	r3, r0
 619 00a0 0028     		cmp	r0, #0
 620 00a2 E4D0     		beq	.L37
ARM GAS  C:\Users\walker\AppData\Local\Temp\ccbkesbg.s 			page 43


 157:Middlewares/Third_Party/CANopenNode/301/CO_HBconsumer.c ****             /* don't break a program, if only value of a parameter is wrong */
 621              		.loc 1 157 13 is_stmt 1 view .LVU192
 157:Middlewares/Third_Party/CANopenNode/301/CO_HBconsumer.c ****             /* don't break a program, if only value of a parameter is wrong */
 622              		.loc 1 157 16 is_stmt 0 view .LVU193
 623 00a4 B8F1000F 		cmp	r8, #0
 624 00a8 DED0     		beq	.L38
 157:Middlewares/Third_Party/CANopenNode/301/CO_HBconsumer.c ****             /* don't break a program, if only value of a parameter is wrong */
 625              		.loc 1 157 34 is_stmt 1 view .LVU194
 626              	.LVL66:
 627              	.LBB26:
 628              	.LBI26:
 439:Middlewares/Third_Party/CANopenNode/301/CO_ODinterface.h ****     return (entry != NULL) ? entry->index : 0;
 629              		.loc 3 439 24 view .LVU195
 630              	.LBB27:
 440:Middlewares/Third_Party/CANopenNode/301/CO_ODinterface.h **** }
 631              		.loc 3 440 5 view .LVU196
 440:Middlewares/Third_Party/CANopenNode/301/CO_ODinterface.h **** }
 632              		.loc 3 440 43 is_stmt 0 view .LVU197
 633 00aa 3A88     		ldrh	r2, [r7]
 634              	.LVL67:
 440:Middlewares/Third_Party/CANopenNode/301/CO_ODinterface.h **** }
 635              		.loc 3 440 43 view .LVU198
 636              	.LBE27:
 637              	.LBE26:
 157:Middlewares/Third_Party/CANopenNode/301/CO_HBconsumer.c ****             /* don't break a program, if only value of a parameter is wrong */
 638              		.loc 1 157 43 view .LVU199
 639 00ac C8F80020 		str	r2, [r8]
 640 00b0 DAE7     		b	.L38
 641              	.LVL68:
 642              	.L46:
 157:Middlewares/Third_Party/CANopenNode/301/CO_HBconsumer.c ****             /* don't break a program, if only value of a parameter is wrong */
 643              		.loc 1 157 43 view .LVU200
 644              	.LBE28:
 645              	.LBE20:
 166:Middlewares/Third_Party/CANopenNode/301/CO_HBconsumer.c ****     HBcons->OD_1016_extension.read = OD_readOriginal;
 646              		.loc 1 166 5 is_stmt 1 view .LVU201
 166:Middlewares/Third_Party/CANopenNode/301/CO_HBconsumer.c ****     HBcons->OD_1016_extension.read = OD_readOriginal;
 647              		.loc 1 166 38 is_stmt 0 view .LVU202
 648 00b2 3662     		str	r6, [r6, #32]
 167:Middlewares/Third_Party/CANopenNode/301/CO_HBconsumer.c ****     HBcons->OD_1016_extension.write = OD_write_1016;
 649              		.loc 1 167 5 is_stmt 1 view .LVU203
 167:Middlewares/Third_Party/CANopenNode/301/CO_HBconsumer.c ****     HBcons->OD_1016_extension.write = OD_write_1016;
 650              		.loc 1 167 36 is_stmt 0 view .LVU204
 651 00b4 0C4B     		ldr	r3, .L48
 652 00b6 7362     		str	r3, [r6, #36]
 168:Middlewares/Third_Party/CANopenNode/301/CO_HBconsumer.c ****     odRet = OD_extension_init(OD_1016_HBcons, &HBcons->OD_1016_extension);
 653              		.loc 1 168 5 is_stmt 1 view .LVU205
 168:Middlewares/Third_Party/CANopenNode/301/CO_HBconsumer.c ****     odRet = OD_extension_init(OD_1016_HBcons, &HBcons->OD_1016_extension);
 654              		.loc 1 168 37 is_stmt 0 view .LVU206
 655 00b8 0C4B     		ldr	r3, .L48+4
 656 00ba B362     		str	r3, [r6, #40]
 169:Middlewares/Third_Party/CANopenNode/301/CO_HBconsumer.c ****     if (odRet != ODR_OK) {
 657              		.loc 1 169 5 is_stmt 1 view .LVU207
 169:Middlewares/Third_Party/CANopenNode/301/CO_HBconsumer.c ****     if (odRet != ODR_OK) {
 658              		.loc 1 169 13 is_stmt 0 view .LVU208
 659 00bc 2036     		adds	r6, r6, #32
 660              	.LVL69:
ARM GAS  C:\Users\walker\AppData\Local\Temp\ccbkesbg.s 			page 44


 661              	.LBB29:
 662              	.LBI29:
 588:Middlewares/Third_Party/CANopenNode/301/CO_ODinterface.h ****                                       OD_extension_t *extension)
 663              		.loc 3 588 21 is_stmt 1 view .LVU209
 664              	.LBB30:
 591:Middlewares/Third_Party/CANopenNode/301/CO_ODinterface.h ****     entry->extension = extension;
 665              		.loc 3 591 5 view .LVU210
 592:Middlewares/Third_Party/CANopenNode/301/CO_ODinterface.h ****     return ODR_OK;
 666              		.loc 3 592 5 view .LVU211
 592:Middlewares/Third_Party/CANopenNode/301/CO_ODinterface.h ****     return ODR_OK;
 667              		.loc 3 592 22 is_stmt 0 view .LVU212
 668 00be BE60     		str	r6, [r7, #8]
 669              	.LVL70:
 593:Middlewares/Third_Party/CANopenNode/301/CO_ODinterface.h **** }
 670              		.loc 3 593 5 is_stmt 1 view .LVU213
 593:Middlewares/Third_Party/CANopenNode/301/CO_ODinterface.h **** }
 671              		.loc 3 593 5 is_stmt 0 view .LVU214
 672              	.LBE30:
 673              	.LBE29:
 170:Middlewares/Third_Party/CANopenNode/301/CO_HBconsumer.c ****         if (errInfo != NULL) *errInfo = OD_getIndex(OD_1016_HBcons);
 674              		.loc 1 170 5 is_stmt 1 view .LVU215
 176:Middlewares/Third_Party/CANopenNode/301/CO_HBconsumer.c **** }
 675              		.loc 1 176 12 is_stmt 0 view .LVU216
 676 00c0 0023     		movs	r3, #0
 677              	.LVL71:
 678              	.L31:
 177:Middlewares/Third_Party/CANopenNode/301/CO_HBconsumer.c **** 
 679              		.loc 1 177 1 view .LVU217
 680 00c2 1846     		mov	r0, r3
 681 00c4 04B0     		add	sp, sp, #16
 682              	.LCFI7:
 683              		.cfi_remember_state
 684              		.cfi_def_cfa_offset 32
 685              		@ sp needed
 686 00c6 BDE8F087 		pop	{r4, r5, r6, r7, r8, r9, r10, pc}
 687              	.LVL72:
 688              	.L40:
 689              	.LCFI8:
 690              		.cfi_restore_state
 130:Middlewares/Third_Party/CANopenNode/301/CO_HBconsumer.c ****     }
 691              		.loc 1 130 16 view .LVU218
 692 00ca 4FF0FF33 		mov	r3, #-1
 693              	.LVL73:
 130:Middlewares/Third_Party/CANopenNode/301/CO_HBconsumer.c ****     }
 694              		.loc 1 130 16 view .LVU219
 695 00ce F8E7     		b	.L31
 696              	.LVL74:
 697              	.L41:
 130:Middlewares/Third_Party/CANopenNode/301/CO_HBconsumer.c ****     }
 698              		.loc 1 130 16 view .LVU220
 699 00d0 4FF0FF33 		mov	r3, #-1
 700              	.LVL75:
 130:Middlewares/Third_Party/CANopenNode/301/CO_HBconsumer.c ****     }
 701              		.loc 1 130 16 view .LVU221
 702 00d4 F5E7     		b	.L31
 703              	.LVL76:
 704              	.L42:
ARM GAS  C:\Users\walker\AppData\Local\Temp\ccbkesbg.s 			page 45


 130:Middlewares/Third_Party/CANopenNode/301/CO_HBconsumer.c ****     }
 705              		.loc 1 130 16 view .LVU222
 706 00d6 4FF0FF33 		mov	r3, #-1
 707              	.LVL77:
 130:Middlewares/Third_Party/CANopenNode/301/CO_HBconsumer.c ****     }
 708              		.loc 1 130 16 view .LVU223
 709 00da F2E7     		b	.L31
 710              	.LVL78:
 711              	.L43:
 130:Middlewares/Third_Party/CANopenNode/301/CO_HBconsumer.c ****     }
 712              		.loc 1 130 16 view .LVU224
 713 00dc 4FF0FF33 		mov	r3, #-1
 714              	.LVL79:
 130:Middlewares/Third_Party/CANopenNode/301/CO_HBconsumer.c ****     }
 715              		.loc 1 130 16 view .LVU225
 716 00e0 EFE7     		b	.L31
 717              	.LVL80:
 718              	.L44:
 130:Middlewares/Third_Party/CANopenNode/301/CO_HBconsumer.c ****     }
 719              		.loc 1 130 16 view .LVU226
 720 00e2 4FF0FF33 		mov	r3, #-1
 721              	.LVL81:
 130:Middlewares/Third_Party/CANopenNode/301/CO_HBconsumer.c ****     }
 722              		.loc 1 130 16 view .LVU227
 723 00e6 ECE7     		b	.L31
 724              	.L49:
 725              		.align	2
 726              	.L48:
 727 00e8 00000000 		.word	OD_readOriginal
 728 00ec 00000000 		.word	OD_write_1016
 729              		.cfi_endproc
 730              	.LFE162:
 732              		.section	.text.CO_HBconsumer_process,"ax",%progbits
 733              		.align	1
 734              		.global	CO_HBconsumer_process
 735              		.syntax unified
 736              		.thumb
 737              		.thumb_func
 739              	CO_HBconsumer_process:
 740              	.LVL82:
 741              	.LFB164:
 239:Middlewares/Third_Party/CANopenNode/301/CO_HBconsumer.c **** 
 240:Middlewares/Third_Party/CANopenNode/301/CO_HBconsumer.c **** 
 241:Middlewares/Third_Party/CANopenNode/301/CO_HBconsumer.c **** #if (CO_CONFIG_HB_CONS) & CO_CONFIG_FLAG_CALLBACK_PRE
 242:Middlewares/Third_Party/CANopenNode/301/CO_HBconsumer.c **** /******************************************************************************/
 243:Middlewares/Third_Party/CANopenNode/301/CO_HBconsumer.c **** void CO_HBconsumer_initCallbackPre(
 244:Middlewares/Third_Party/CANopenNode/301/CO_HBconsumer.c ****         CO_HBconsumer_t        *HBcons,
 245:Middlewares/Third_Party/CANopenNode/301/CO_HBconsumer.c ****         void                   *object,
 246:Middlewares/Third_Party/CANopenNode/301/CO_HBconsumer.c ****         void                  (*pFunctSignal)(void *object))
 247:Middlewares/Third_Party/CANopenNode/301/CO_HBconsumer.c **** {
 248:Middlewares/Third_Party/CANopenNode/301/CO_HBconsumer.c ****     if (HBcons != NULL) {
 249:Middlewares/Third_Party/CANopenNode/301/CO_HBconsumer.c ****         uint8_t i;
 250:Middlewares/Third_Party/CANopenNode/301/CO_HBconsumer.c ****         for(i=0; i<HBcons->numberOfMonitoredNodes; i++) {
 251:Middlewares/Third_Party/CANopenNode/301/CO_HBconsumer.c ****             HBcons->monitoredNodes[i].pFunctSignalPre = pFunctSignal;
 252:Middlewares/Third_Party/CANopenNode/301/CO_HBconsumer.c ****             HBcons->monitoredNodes[i].functSignalObjectPre = object;
 253:Middlewares/Third_Party/CANopenNode/301/CO_HBconsumer.c ****         }
 254:Middlewares/Third_Party/CANopenNode/301/CO_HBconsumer.c ****     }
ARM GAS  C:\Users\walker\AppData\Local\Temp\ccbkesbg.s 			page 46


 255:Middlewares/Third_Party/CANopenNode/301/CO_HBconsumer.c **** }
 256:Middlewares/Third_Party/CANopenNode/301/CO_HBconsumer.c **** #endif
 257:Middlewares/Third_Party/CANopenNode/301/CO_HBconsumer.c **** 
 258:Middlewares/Third_Party/CANopenNode/301/CO_HBconsumer.c **** 
 259:Middlewares/Third_Party/CANopenNode/301/CO_HBconsumer.c **** #if (CO_CONFIG_HB_CONS) & CO_CONFIG_HB_CONS_CALLBACK_CHANGE
 260:Middlewares/Third_Party/CANopenNode/301/CO_HBconsumer.c **** /******************************************************************************/
 261:Middlewares/Third_Party/CANopenNode/301/CO_HBconsumer.c **** void CO_HBconsumer_initCallbackNmtChanged(
 262:Middlewares/Third_Party/CANopenNode/301/CO_HBconsumer.c ****         CO_HBconsumer_t        *HBcons,
 263:Middlewares/Third_Party/CANopenNode/301/CO_HBconsumer.c ****         uint8_t                 idx,
 264:Middlewares/Third_Party/CANopenNode/301/CO_HBconsumer.c ****         void                   *object,
 265:Middlewares/Third_Party/CANopenNode/301/CO_HBconsumer.c ****         void                  (*pFunctSignal)(uint8_t nodeId, uint8_t idx,
 266:Middlewares/Third_Party/CANopenNode/301/CO_HBconsumer.c ****                                               CO_NMT_internalState_t NMTstate,
 267:Middlewares/Third_Party/CANopenNode/301/CO_HBconsumer.c ****                                               void *object))
 268:Middlewares/Third_Party/CANopenNode/301/CO_HBconsumer.c **** {
 269:Middlewares/Third_Party/CANopenNode/301/CO_HBconsumer.c ****     (void) idx;
 270:Middlewares/Third_Party/CANopenNode/301/CO_HBconsumer.c ****     if (HBcons==NULL) {
 271:Middlewares/Third_Party/CANopenNode/301/CO_HBconsumer.c ****         return;
 272:Middlewares/Third_Party/CANopenNode/301/CO_HBconsumer.c ****     }
 273:Middlewares/Third_Party/CANopenNode/301/CO_HBconsumer.c **** 
 274:Middlewares/Third_Party/CANopenNode/301/CO_HBconsumer.c ****     HBcons->pFunctSignalNmtChanged = pFunctSignal;
 275:Middlewares/Third_Party/CANopenNode/301/CO_HBconsumer.c ****     HBcons->pFunctSignalObjectNmtChanged = object;
 276:Middlewares/Third_Party/CANopenNode/301/CO_HBconsumer.c **** }
 277:Middlewares/Third_Party/CANopenNode/301/CO_HBconsumer.c **** #endif
 278:Middlewares/Third_Party/CANopenNode/301/CO_HBconsumer.c **** 
 279:Middlewares/Third_Party/CANopenNode/301/CO_HBconsumer.c **** 
 280:Middlewares/Third_Party/CANopenNode/301/CO_HBconsumer.c **** #if (CO_CONFIG_HB_CONS) & CO_CONFIG_HB_CONS_CALLBACK_MULTI
 281:Middlewares/Third_Party/CANopenNode/301/CO_HBconsumer.c **** /******************************************************************************/
 282:Middlewares/Third_Party/CANopenNode/301/CO_HBconsumer.c **** void CO_HBconsumer_initCallbackNmtChanged(
 283:Middlewares/Third_Party/CANopenNode/301/CO_HBconsumer.c ****         CO_HBconsumer_t        *HBcons,
 284:Middlewares/Third_Party/CANopenNode/301/CO_HBconsumer.c ****         uint8_t                 idx,
 285:Middlewares/Third_Party/CANopenNode/301/CO_HBconsumer.c ****         void                   *object,
 286:Middlewares/Third_Party/CANopenNode/301/CO_HBconsumer.c ****         void                  (*pFunctSignal)(uint8_t nodeId, uint8_t idx,
 287:Middlewares/Third_Party/CANopenNode/301/CO_HBconsumer.c ****                                               CO_NMT_internalState_t NMTstate,
 288:Middlewares/Third_Party/CANopenNode/301/CO_HBconsumer.c ****                                               void *object))
 289:Middlewares/Third_Party/CANopenNode/301/CO_HBconsumer.c **** {
 290:Middlewares/Third_Party/CANopenNode/301/CO_HBconsumer.c ****     if (HBcons==NULL || idx>=HBcons->numberOfMonitoredNodes) {
 291:Middlewares/Third_Party/CANopenNode/301/CO_HBconsumer.c ****         return;
 292:Middlewares/Third_Party/CANopenNode/301/CO_HBconsumer.c ****     }
 293:Middlewares/Third_Party/CANopenNode/301/CO_HBconsumer.c **** 
 294:Middlewares/Third_Party/CANopenNode/301/CO_HBconsumer.c ****     CO_HBconsNode_t * const monitoredNode = &HBcons->monitoredNodes[idx];
 295:Middlewares/Third_Party/CANopenNode/301/CO_HBconsumer.c ****     monitoredNode->pFunctSignalNmtChanged = pFunctSignal;
 296:Middlewares/Third_Party/CANopenNode/301/CO_HBconsumer.c ****     monitoredNode->pFunctSignalObjectNmtChanged = object;
 297:Middlewares/Third_Party/CANopenNode/301/CO_HBconsumer.c **** }
 298:Middlewares/Third_Party/CANopenNode/301/CO_HBconsumer.c **** 
 299:Middlewares/Third_Party/CANopenNode/301/CO_HBconsumer.c **** 
 300:Middlewares/Third_Party/CANopenNode/301/CO_HBconsumer.c **** /******************************************************************************/
 301:Middlewares/Third_Party/CANopenNode/301/CO_HBconsumer.c **** void CO_HBconsumer_initCallbackHeartbeatStarted(
 302:Middlewares/Third_Party/CANopenNode/301/CO_HBconsumer.c ****     CO_HBconsumer_t        *HBcons,
 303:Middlewares/Third_Party/CANopenNode/301/CO_HBconsumer.c ****     uint8_t                 idx,
 304:Middlewares/Third_Party/CANopenNode/301/CO_HBconsumer.c ****     void                   *object,
 305:Middlewares/Third_Party/CANopenNode/301/CO_HBconsumer.c ****     void                  (*pFunctSignal)(uint8_t nodeId, uint8_t idx, void *object))
 306:Middlewares/Third_Party/CANopenNode/301/CO_HBconsumer.c **** {
 307:Middlewares/Third_Party/CANopenNode/301/CO_HBconsumer.c ****     CO_HBconsNode_t *monitoredNode;
 308:Middlewares/Third_Party/CANopenNode/301/CO_HBconsumer.c **** 
 309:Middlewares/Third_Party/CANopenNode/301/CO_HBconsumer.c ****     if (HBcons==NULL || idx>=HBcons->numberOfMonitoredNodes) {
 310:Middlewares/Third_Party/CANopenNode/301/CO_HBconsumer.c ****         return;
 311:Middlewares/Third_Party/CANopenNode/301/CO_HBconsumer.c ****     }
ARM GAS  C:\Users\walker\AppData\Local\Temp\ccbkesbg.s 			page 47


 312:Middlewares/Third_Party/CANopenNode/301/CO_HBconsumer.c **** 
 313:Middlewares/Third_Party/CANopenNode/301/CO_HBconsumer.c ****     monitoredNode = &HBcons->monitoredNodes[idx];
 314:Middlewares/Third_Party/CANopenNode/301/CO_HBconsumer.c ****     monitoredNode->pFunctSignalHbStarted = pFunctSignal;
 315:Middlewares/Third_Party/CANopenNode/301/CO_HBconsumer.c ****     monitoredNode->functSignalObjectHbStarted = object;
 316:Middlewares/Third_Party/CANopenNode/301/CO_HBconsumer.c **** }
 317:Middlewares/Third_Party/CANopenNode/301/CO_HBconsumer.c **** 
 318:Middlewares/Third_Party/CANopenNode/301/CO_HBconsumer.c **** 
 319:Middlewares/Third_Party/CANopenNode/301/CO_HBconsumer.c **** /******************************************************************************/
 320:Middlewares/Third_Party/CANopenNode/301/CO_HBconsumer.c **** void CO_HBconsumer_initCallbackTimeout(
 321:Middlewares/Third_Party/CANopenNode/301/CO_HBconsumer.c ****     CO_HBconsumer_t        *HBcons,
 322:Middlewares/Third_Party/CANopenNode/301/CO_HBconsumer.c ****     uint8_t                 idx,
 323:Middlewares/Third_Party/CANopenNode/301/CO_HBconsumer.c ****     void                   *object,
 324:Middlewares/Third_Party/CANopenNode/301/CO_HBconsumer.c ****     void                  (*pFunctSignal)(uint8_t nodeId, uint8_t idx, void *object))
 325:Middlewares/Third_Party/CANopenNode/301/CO_HBconsumer.c **** {
 326:Middlewares/Third_Party/CANopenNode/301/CO_HBconsumer.c ****     CO_HBconsNode_t *monitoredNode;
 327:Middlewares/Third_Party/CANopenNode/301/CO_HBconsumer.c **** 
 328:Middlewares/Third_Party/CANopenNode/301/CO_HBconsumer.c ****     if (HBcons==NULL || idx>=HBcons->numberOfMonitoredNodes) {
 329:Middlewares/Third_Party/CANopenNode/301/CO_HBconsumer.c ****         return;
 330:Middlewares/Third_Party/CANopenNode/301/CO_HBconsumer.c ****     }
 331:Middlewares/Third_Party/CANopenNode/301/CO_HBconsumer.c **** 
 332:Middlewares/Third_Party/CANopenNode/301/CO_HBconsumer.c ****     monitoredNode = &HBcons->monitoredNodes[idx];
 333:Middlewares/Third_Party/CANopenNode/301/CO_HBconsumer.c ****     monitoredNode->pFunctSignalTimeout = pFunctSignal;
 334:Middlewares/Third_Party/CANopenNode/301/CO_HBconsumer.c ****     monitoredNode->functSignalObjectTimeout = object;
 335:Middlewares/Third_Party/CANopenNode/301/CO_HBconsumer.c **** }
 336:Middlewares/Third_Party/CANopenNode/301/CO_HBconsumer.c **** 
 337:Middlewares/Third_Party/CANopenNode/301/CO_HBconsumer.c **** 
 338:Middlewares/Third_Party/CANopenNode/301/CO_HBconsumer.c **** /******************************************************************************/
 339:Middlewares/Third_Party/CANopenNode/301/CO_HBconsumer.c **** void CO_HBconsumer_initCallbackRemoteReset(
 340:Middlewares/Third_Party/CANopenNode/301/CO_HBconsumer.c ****     CO_HBconsumer_t        *HBcons,
 341:Middlewares/Third_Party/CANopenNode/301/CO_HBconsumer.c ****     uint8_t                 idx,
 342:Middlewares/Third_Party/CANopenNode/301/CO_HBconsumer.c ****     void                   *object,
 343:Middlewares/Third_Party/CANopenNode/301/CO_HBconsumer.c ****     void                  (*pFunctSignal)(uint8_t nodeId, uint8_t idx, void *object))
 344:Middlewares/Third_Party/CANopenNode/301/CO_HBconsumer.c **** {
 345:Middlewares/Third_Party/CANopenNode/301/CO_HBconsumer.c ****     CO_HBconsNode_t *monitoredNode;
 346:Middlewares/Third_Party/CANopenNode/301/CO_HBconsumer.c **** 
 347:Middlewares/Third_Party/CANopenNode/301/CO_HBconsumer.c ****     if (HBcons==NULL || idx>=HBcons->numberOfMonitoredNodes) {
 348:Middlewares/Third_Party/CANopenNode/301/CO_HBconsumer.c ****         return;
 349:Middlewares/Third_Party/CANopenNode/301/CO_HBconsumer.c ****     }
 350:Middlewares/Third_Party/CANopenNode/301/CO_HBconsumer.c **** 
 351:Middlewares/Third_Party/CANopenNode/301/CO_HBconsumer.c ****     monitoredNode = &HBcons->monitoredNodes[idx];
 352:Middlewares/Third_Party/CANopenNode/301/CO_HBconsumer.c ****     monitoredNode->pFunctSignalRemoteReset = pFunctSignal;
 353:Middlewares/Third_Party/CANopenNode/301/CO_HBconsumer.c ****     monitoredNode->functSignalObjectRemoteReset = object;
 354:Middlewares/Third_Party/CANopenNode/301/CO_HBconsumer.c **** }
 355:Middlewares/Third_Party/CANopenNode/301/CO_HBconsumer.c **** #endif /* (CO_CONFIG_HB_CONS) & CO_CONFIG_HB_CONS_CALLBACK_MULTI */
 356:Middlewares/Third_Party/CANopenNode/301/CO_HBconsumer.c **** 
 357:Middlewares/Third_Party/CANopenNode/301/CO_HBconsumer.c **** 
 358:Middlewares/Third_Party/CANopenNode/301/CO_HBconsumer.c **** /******************************************************************************/
 359:Middlewares/Third_Party/CANopenNode/301/CO_HBconsumer.c **** void CO_HBconsumer_process(
 360:Middlewares/Third_Party/CANopenNode/301/CO_HBconsumer.c ****         CO_HBconsumer_t        *HBcons,
 361:Middlewares/Third_Party/CANopenNode/301/CO_HBconsumer.c ****         bool_t                  NMTisPreOrOperational,
 362:Middlewares/Third_Party/CANopenNode/301/CO_HBconsumer.c ****         uint32_t                timeDifference_us,
 363:Middlewares/Third_Party/CANopenNode/301/CO_HBconsumer.c ****         uint32_t               *timerNext_us)
 364:Middlewares/Third_Party/CANopenNode/301/CO_HBconsumer.c **** {
 742              		.loc 1 364 1 is_stmt 1 view -0
 743              		.cfi_startproc
 744              		@ args = 0, pretend = 0, frame = 0
 745              		@ frame_needed = 0, uses_anonymous_args = 0
ARM GAS  C:\Users\walker\AppData\Local\Temp\ccbkesbg.s 			page 48


 746              		.loc 1 364 1 is_stmt 0 view .LVU229
 747 0000 2DE9F04F 		push	{r4, r5, r6, r7, r8, r9, r10, fp, lr}
 748              	.LCFI9:
 749              		.cfi_def_cfa_offset 36
 750              		.cfi_offset 4, -36
 751              		.cfi_offset 5, -32
 752              		.cfi_offset 6, -28
 753              		.cfi_offset 7, -24
 754              		.cfi_offset 8, -20
 755              		.cfi_offset 9, -16
 756              		.cfi_offset 10, -12
 757              		.cfi_offset 11, -8
 758              		.cfi_offset 14, -4
 759 0004 83B0     		sub	sp, sp, #12
 760              	.LCFI10:
 761              		.cfi_def_cfa_offset 48
 762 0006 0446     		mov	r4, r0
 365:Middlewares/Third_Party/CANopenNode/301/CO_HBconsumer.c ****     (void)timerNext_us; /* may be unused */
 763              		.loc 1 365 5 is_stmt 1 view .LVU230
 366:Middlewares/Third_Party/CANopenNode/301/CO_HBconsumer.c **** 
 367:Middlewares/Third_Party/CANopenNode/301/CO_HBconsumer.c ****     bool_t allMonitoredActiveCurrent = true;
 764              		.loc 1 367 5 view .LVU231
 765              	.LVL83:
 368:Middlewares/Third_Party/CANopenNode/301/CO_HBconsumer.c ****     bool_t allMonitoredOperationalCurrent = true;
 766              		.loc 1 368 5 view .LVU232
 369:Middlewares/Third_Party/CANopenNode/301/CO_HBconsumer.c **** 
 370:Middlewares/Third_Party/CANopenNode/301/CO_HBconsumer.c ****     if (NMTisPreOrOperational && HBcons->NMTisPreOrOperationalPrev) {
 767              		.loc 1 370 5 view .LVU233
 768              		.loc 1 370 8 is_stmt 0 view .LVU234
 769 0008 0F46     		mov	r7, r1
 770 000a 19B1     		cbz	r1, .L51
 771 000c 9146     		mov	r9, r2
 772              		.loc 1 370 40 discriminator 1 view .LVU235
 773 000e 4369     		ldr	r3, [r0, #20]
 774              	.LVL84:
 775              		.loc 1 370 31 discriminator 1 view .LVU236
 776 0010 002B     		cmp	r3, #0
 777 0012 52D1     		bne	.L67
 778              	.L51:
 371:Middlewares/Third_Party/CANopenNode/301/CO_HBconsumer.c ****         for (uint8_t i=0; i<HBcons->numberOfMonitoredNodes; i++) {
 372:Middlewares/Third_Party/CANopenNode/301/CO_HBconsumer.c ****             uint32_t timeDifference_us_copy = timeDifference_us;
 373:Middlewares/Third_Party/CANopenNode/301/CO_HBconsumer.c ****             CO_HBconsNode_t * const monitoredNode = &HBcons->monitoredNodes[i];
 374:Middlewares/Third_Party/CANopenNode/301/CO_HBconsumer.c **** 
 375:Middlewares/Third_Party/CANopenNode/301/CO_HBconsumer.c ****             if (monitoredNode->HBstate == CO_HBconsumer_UNCONFIGURED) {
 376:Middlewares/Third_Party/CANopenNode/301/CO_HBconsumer.c ****                 /* continue, if node is not monitored */
 377:Middlewares/Third_Party/CANopenNode/301/CO_HBconsumer.c ****                 continue;
 378:Middlewares/Third_Party/CANopenNode/301/CO_HBconsumer.c ****             }
 379:Middlewares/Third_Party/CANopenNode/301/CO_HBconsumer.c ****             /* Verify if received message is heartbeat or bootup */
 380:Middlewares/Third_Party/CANopenNode/301/CO_HBconsumer.c ****             if (CO_FLAG_READ(monitoredNode->CANrxNew)) {
 381:Middlewares/Third_Party/CANopenNode/301/CO_HBconsumer.c ****                 if (monitoredNode->NMTstate == CO_NMT_INITIALIZING) {
 382:Middlewares/Third_Party/CANopenNode/301/CO_HBconsumer.c ****                     /* bootup message*/
 383:Middlewares/Third_Party/CANopenNode/301/CO_HBconsumer.c **** #if (CO_CONFIG_HB_CONS) & CO_CONFIG_HB_CONS_CALLBACK_MULTI
 384:Middlewares/Third_Party/CANopenNode/301/CO_HBconsumer.c ****                     if (monitoredNode->pFunctSignalRemoteReset != NULL) {
 385:Middlewares/Third_Party/CANopenNode/301/CO_HBconsumer.c ****                         monitoredNode->pFunctSignalRemoteReset(
 386:Middlewares/Third_Party/CANopenNode/301/CO_HBconsumer.c ****                             monitoredNode->nodeId, i,
 387:Middlewares/Third_Party/CANopenNode/301/CO_HBconsumer.c ****                             monitoredNode->functSignalObjectRemoteReset);
 388:Middlewares/Third_Party/CANopenNode/301/CO_HBconsumer.c ****                     }
ARM GAS  C:\Users\walker\AppData\Local\Temp\ccbkesbg.s 			page 49


 389:Middlewares/Third_Party/CANopenNode/301/CO_HBconsumer.c **** #endif
 390:Middlewares/Third_Party/CANopenNode/301/CO_HBconsumer.c ****                     if (monitoredNode->HBstate == CO_HBconsumer_ACTIVE) {
 391:Middlewares/Third_Party/CANopenNode/301/CO_HBconsumer.c ****                         CO_errorReport(HBcons->em,
 392:Middlewares/Third_Party/CANopenNode/301/CO_HBconsumer.c ****                                        CO_EM_HB_CONSUMER_REMOTE_RESET,
 393:Middlewares/Third_Party/CANopenNode/301/CO_HBconsumer.c ****                                        CO_EMC_HEARTBEAT, i);
 394:Middlewares/Third_Party/CANopenNode/301/CO_HBconsumer.c ****                     }
 395:Middlewares/Third_Party/CANopenNode/301/CO_HBconsumer.c ****                     monitoredNode->HBstate = CO_HBconsumer_UNKNOWN;
 396:Middlewares/Third_Party/CANopenNode/301/CO_HBconsumer.c **** 
 397:Middlewares/Third_Party/CANopenNode/301/CO_HBconsumer.c ****                 }
 398:Middlewares/Third_Party/CANopenNode/301/CO_HBconsumer.c ****                 else {
 399:Middlewares/Third_Party/CANopenNode/301/CO_HBconsumer.c ****                     /* heartbeat message */
 400:Middlewares/Third_Party/CANopenNode/301/CO_HBconsumer.c **** #if (CO_CONFIG_HB_CONS) & CO_CONFIG_HB_CONS_CALLBACK_MULTI
 401:Middlewares/Third_Party/CANopenNode/301/CO_HBconsumer.c ****                     if (monitoredNode->HBstate != CO_HBconsumer_ACTIVE &&
 402:Middlewares/Third_Party/CANopenNode/301/CO_HBconsumer.c ****                         monitoredNode->pFunctSignalHbStarted != NULL) {
 403:Middlewares/Third_Party/CANopenNode/301/CO_HBconsumer.c ****                         monitoredNode->pFunctSignalHbStarted(
 404:Middlewares/Third_Party/CANopenNode/301/CO_HBconsumer.c ****                             monitoredNode->nodeId, i,
 405:Middlewares/Third_Party/CANopenNode/301/CO_HBconsumer.c ****                             monitoredNode->functSignalObjectHbStarted);
 406:Middlewares/Third_Party/CANopenNode/301/CO_HBconsumer.c ****                     }
 407:Middlewares/Third_Party/CANopenNode/301/CO_HBconsumer.c **** #endif
 408:Middlewares/Third_Party/CANopenNode/301/CO_HBconsumer.c ****                     monitoredNode->HBstate = CO_HBconsumer_ACTIVE;
 409:Middlewares/Third_Party/CANopenNode/301/CO_HBconsumer.c ****                     /* reset timer */
 410:Middlewares/Third_Party/CANopenNode/301/CO_HBconsumer.c ****                     monitoredNode->timeoutTimer = 0;
 411:Middlewares/Third_Party/CANopenNode/301/CO_HBconsumer.c ****                     timeDifference_us_copy = 0;
 412:Middlewares/Third_Party/CANopenNode/301/CO_HBconsumer.c ****                 }
 413:Middlewares/Third_Party/CANopenNode/301/CO_HBconsumer.c ****                 CO_FLAG_CLEAR(monitoredNode->CANrxNew);
 414:Middlewares/Third_Party/CANopenNode/301/CO_HBconsumer.c ****             }
 415:Middlewares/Third_Party/CANopenNode/301/CO_HBconsumer.c **** 
 416:Middlewares/Third_Party/CANopenNode/301/CO_HBconsumer.c ****             /* Verify timeout */
 417:Middlewares/Third_Party/CANopenNode/301/CO_HBconsumer.c ****             if (monitoredNode->HBstate == CO_HBconsumer_ACTIVE) {
 418:Middlewares/Third_Party/CANopenNode/301/CO_HBconsumer.c ****                 monitoredNode->timeoutTimer += timeDifference_us_copy;
 419:Middlewares/Third_Party/CANopenNode/301/CO_HBconsumer.c **** 
 420:Middlewares/Third_Party/CANopenNode/301/CO_HBconsumer.c ****                 if (monitoredNode->timeoutTimer >= monitoredNode->time_us) {
 421:Middlewares/Third_Party/CANopenNode/301/CO_HBconsumer.c ****                     /* timeout expired */
 422:Middlewares/Third_Party/CANopenNode/301/CO_HBconsumer.c **** #if (CO_CONFIG_HB_CONS) & CO_CONFIG_HB_CONS_CALLBACK_MULTI
 423:Middlewares/Third_Party/CANopenNode/301/CO_HBconsumer.c ****                     if (monitoredNode->pFunctSignalTimeout!=NULL) {
 424:Middlewares/Third_Party/CANopenNode/301/CO_HBconsumer.c ****                         monitoredNode->pFunctSignalTimeout(
 425:Middlewares/Third_Party/CANopenNode/301/CO_HBconsumer.c ****                             monitoredNode->nodeId, i,
 426:Middlewares/Third_Party/CANopenNode/301/CO_HBconsumer.c ****                             monitoredNode->functSignalObjectTimeout);
 427:Middlewares/Third_Party/CANopenNode/301/CO_HBconsumer.c ****                     }
 428:Middlewares/Third_Party/CANopenNode/301/CO_HBconsumer.c **** #endif
 429:Middlewares/Third_Party/CANopenNode/301/CO_HBconsumer.c ****                     CO_errorReport(HBcons->em, CO_EM_HEARTBEAT_CONSUMER,
 430:Middlewares/Third_Party/CANopenNode/301/CO_HBconsumer.c ****                                    CO_EMC_HEARTBEAT, i);
 431:Middlewares/Third_Party/CANopenNode/301/CO_HBconsumer.c ****                     monitoredNode->NMTstate = CO_NMT_UNKNOWN;
 432:Middlewares/Third_Party/CANopenNode/301/CO_HBconsumer.c ****                     monitoredNode->HBstate = CO_HBconsumer_TIMEOUT;
 433:Middlewares/Third_Party/CANopenNode/301/CO_HBconsumer.c ****                 }
 434:Middlewares/Third_Party/CANopenNode/301/CO_HBconsumer.c **** 
 435:Middlewares/Third_Party/CANopenNode/301/CO_HBconsumer.c **** #if (CO_CONFIG_HB_CONS) & CO_CONFIG_FLAG_TIMERNEXT
 436:Middlewares/Third_Party/CANopenNode/301/CO_HBconsumer.c ****                 else if (timerNext_us != NULL) {
 437:Middlewares/Third_Party/CANopenNode/301/CO_HBconsumer.c ****                     /* Calculate timerNext_us for next timeout checking. */
 438:Middlewares/Third_Party/CANopenNode/301/CO_HBconsumer.c ****                     uint32_t diff = monitoredNode->time_us
 439:Middlewares/Third_Party/CANopenNode/301/CO_HBconsumer.c ****                                   - monitoredNode->timeoutTimer;
 440:Middlewares/Third_Party/CANopenNode/301/CO_HBconsumer.c ****                     if (*timerNext_us > diff) {
 441:Middlewares/Third_Party/CANopenNode/301/CO_HBconsumer.c ****                         *timerNext_us = diff;
 442:Middlewares/Third_Party/CANopenNode/301/CO_HBconsumer.c ****                     }
 443:Middlewares/Third_Party/CANopenNode/301/CO_HBconsumer.c ****                 }
 444:Middlewares/Third_Party/CANopenNode/301/CO_HBconsumer.c **** #endif
 445:Middlewares/Third_Party/CANopenNode/301/CO_HBconsumer.c ****             }
ARM GAS  C:\Users\walker\AppData\Local\Temp\ccbkesbg.s 			page 50


 446:Middlewares/Third_Party/CANopenNode/301/CO_HBconsumer.c **** 
 447:Middlewares/Third_Party/CANopenNode/301/CO_HBconsumer.c ****             if(monitoredNode->HBstate != CO_HBconsumer_ACTIVE) {
 448:Middlewares/Third_Party/CANopenNode/301/CO_HBconsumer.c ****                 allMonitoredActiveCurrent = false;
 449:Middlewares/Third_Party/CANopenNode/301/CO_HBconsumer.c ****             }
 450:Middlewares/Third_Party/CANopenNode/301/CO_HBconsumer.c ****             if (monitoredNode->NMTstate != CO_NMT_OPERATIONAL) {
 451:Middlewares/Third_Party/CANopenNode/301/CO_HBconsumer.c ****                 allMonitoredOperationalCurrent = false;
 452:Middlewares/Third_Party/CANopenNode/301/CO_HBconsumer.c ****             }
 453:Middlewares/Third_Party/CANopenNode/301/CO_HBconsumer.c **** #if (CO_CONFIG_HB_CONS) & CO_CONFIG_HB_CONS_CALLBACK_CHANGE \
 454:Middlewares/Third_Party/CANopenNode/301/CO_HBconsumer.c ****     || (CO_CONFIG_HB_CONS) & CO_CONFIG_HB_CONS_CALLBACK_MULTI
 455:Middlewares/Third_Party/CANopenNode/301/CO_HBconsumer.c ****             /* Verify, if NMT state of monitored node changed */
 456:Middlewares/Third_Party/CANopenNode/301/CO_HBconsumer.c ****             if(monitoredNode->NMTstate != monitoredNode->NMTstatePrev) {
 457:Middlewares/Third_Party/CANopenNode/301/CO_HBconsumer.c **** #if (CO_CONFIG_HB_CONS) & CO_CONFIG_HB_CONS_CALLBACK_CHANGE
 458:Middlewares/Third_Party/CANopenNode/301/CO_HBconsumer.c ****                 if (HBcons->pFunctSignalNmtChanged != NULL) {
 459:Middlewares/Third_Party/CANopenNode/301/CO_HBconsumer.c ****                     HBcons->pFunctSignalNmtChanged(
 460:Middlewares/Third_Party/CANopenNode/301/CO_HBconsumer.c ****                         monitoredNode->nodeId, i, monitoredNode->NMTstate,
 461:Middlewares/Third_Party/CANopenNode/301/CO_HBconsumer.c ****                         HBcons->pFunctSignalObjectNmtChanged);
 462:Middlewares/Third_Party/CANopenNode/301/CO_HBconsumer.c **** #else
 463:Middlewares/Third_Party/CANopenNode/301/CO_HBconsumer.c ****                 if (monitoredNode->pFunctSignalNmtChanged != NULL) {
 464:Middlewares/Third_Party/CANopenNode/301/CO_HBconsumer.c ****                     monitoredNode->pFunctSignalNmtChanged(
 465:Middlewares/Third_Party/CANopenNode/301/CO_HBconsumer.c ****                         monitoredNode->nodeId, i, monitoredNode->NMTstate,
 466:Middlewares/Third_Party/CANopenNode/301/CO_HBconsumer.c ****                         monitoredNode->pFunctSignalObjectNmtChanged);
 467:Middlewares/Third_Party/CANopenNode/301/CO_HBconsumer.c **** #endif
 468:Middlewares/Third_Party/CANopenNode/301/CO_HBconsumer.c ****                 }
 469:Middlewares/Third_Party/CANopenNode/301/CO_HBconsumer.c ****                 monitoredNode->NMTstatePrev = monitoredNode->NMTstate;
 470:Middlewares/Third_Party/CANopenNode/301/CO_HBconsumer.c ****             }
 471:Middlewares/Third_Party/CANopenNode/301/CO_HBconsumer.c **** #endif
 472:Middlewares/Third_Party/CANopenNode/301/CO_HBconsumer.c ****         }
 473:Middlewares/Third_Party/CANopenNode/301/CO_HBconsumer.c ****     }
 474:Middlewares/Third_Party/CANopenNode/301/CO_HBconsumer.c ****     else if (NMTisPreOrOperational || HBcons->NMTisPreOrOperationalPrev) {
 779              		.loc 1 474 10 is_stmt 1 view .LVU237
 780              		.loc 1 474 13 is_stmt 0 view .LVU238
 781 0014 002F     		cmp	r7, #0
 782 0016 67D1     		bne	.L71
 783              		.loc 1 474 45 discriminator 1 view .LVU239
